   1               		.file	"Mobo.c"
   2               	__SREG__ = 0x3f
   3               	__SP_H__ = 0x3e
   4               	__SP_L__ = 0x3d
   5               	__CCP__ = 0x34
   6               	__tmp_reg__ = 0
   7               	__zero_reg__ = 1
  15               	.Ltext0:
  16               		.section	.text.usbFunctionWrite,"ax",@progbits
  17               	.global	usbFunctionWrite
  19               	usbFunctionWrite:
  20               	.LFB7:
  21               	.LSM0:
  22               	.LVL0:
  23 0000 AF92      		push r10
  24 0002 BF92      		push r11
  25 0004 CF92      		push r12
  26 0006 DF92      		push r13
  27 0008 EF92      		push r14
  28 000a FF92      		push r15
  29 000c 0F93      		push r16
  30 000e 1F93      		push r17
  31 0010 CF93      		push r28
  32 0012 DF93      		push r29
  33               	/* prologue: function */
  34               	/* frame size = 0 */
  35               	/* stack size = 10 */
  36               	.L__stack_usage = 10
  37 0014 EC01      		movw r28,r24
  38 0016 FB01      		movw r30,r22
  39               	.LSM1:
  40 0018 85B1      		in r24,37-32
  41               	.LVL1:
  42 001a 94E0      		ldi r25,lo8(4)
  43 001c 8927      		eor r24,r25
  44 001e 85B9      		out 37-32,r24
  45               	.LSM2:
  46 0020 8981      		ldd r24,Y+1
  47 0022 8333      		cpi r24,lo8(51)
  48 0024 01F4      		brne .+2
  49 0026 00C0      		rjmp .L5
  50 0028 8433      		cpi r24,lo8(52)
  51 002a 00F4      		brsh .L8
  52 002c 8033      		cpi r24,lo8(48)
  53 002e 01F0      		breq .L3
  54 0030 8233      		cpi r24,lo8(50)
  55 0032 01F0      		breq .+2
  56 0034 00C0      		rjmp .L1
  57 0036 00C0      		rjmp .L11
  58               	.L8:
  59 0038 8433      		cpi r24,lo8(52)
  60 003a 01F4      		brne .+2
  61 003c 00C0      		rjmp .L6
  62 003e 8533      		cpi r24,lo8(53)
  63 0040 01F0      		breq .+2
  64 0042 00C0      		rjmp .L1
  65 0044 00C0      		rjmp .L12
  66               	.L3:
  67               	.LSM3:
  68 0046 4630      		cpi r20,lo8(6)
  69 0048 01F0      		breq .+2
  70 004a 00C0      		rjmp .L1
  71               	.LVL2:
  72               	.LBB6:
  73               	.LBB7:
  74               	.LSM4:
  75 004c 8081      		ld r24,Z
  76 004e 682F      		mov r22,r24
  77               	.LVL3:
  78 0050 6295      		swap r22
  79 0052 6695      		lsr r22
  80 0054 6770      		andi r22,lo8(7)
  81               	.LVL4:
  82               	.LSM5:
  83 0056 B181      		ldd r27,Z+1
  84 0058 880F      		lsl r24
  85 005a 880F      		lsl r24
  86 005c 8C77      		andi r24,lo8(124)
  87 005e 9B2F      		mov r25,r27
  88 0060 9295      		swap r25
  89 0062 9695      		lsr r25
  90 0064 9695      		lsr r25
  91 0066 9370      		andi r25,lo8(3)
  92 0068 892B      		or r24,r25
  93               	.LVL5:
  94               	.LSM6:
  95 006a 9581      		ldd r25,Z+5
  96               	.LVL6:
  97               	.LSM7:
  98 006c 7481      		ldd r23,Z+4
  99               	.LVL7:
 100               	.LSM8:
 101 006e F380      		ldd r15,Z+3
 102               	.LVL8:
 103               	.LSM9:
 104 0070 E280      		ldd r14,Z+2
 105               	.LVL9:
 106               	.LSM10:
 107 0072 BF73      		andi r27,lo8(63)
 108               	.LVL10:
 109               	.LSM11:
 110 0074 00E0      		ldi r16,lo8(0)
 111 0076 19E2      		ldi r17,lo8(41)
 112 0078 A02F      		mov r26,r16
 113 007a D12E      		mov r13,r17
 114 007c 22EC      		ldi r18,lo8(1917384130)
 115 007e 35EF      		ldi r19,hi8(1917384130)
 116 0080 48E4      		ldi r20,hlo8(1917384130)
 117 0082 52E7      		ldi r21,hhi8(1917384130)
 118 0084 A02E      		mov r10,r16
 119 0086 B02E      		mov r11,r16
 120 0088 C02E      		mov r12,r16
 121               	/* #APP */
 122               	 ;  83 "pe0fko_FreqFromSi570.c" 1
 123 008a 8894      		clc					
 124               		L_A_102:					
 125 008c 00F4      		brcc L_B_102			
 126 008e A20F      		add r26,r18			
 127 0090 A31E      		adc r10,r19			
 128 0092 B41E      		adc r11,r20			
 129 0094 C51E      		adc r12,r21			
 130               		L_B_102:					
 131 0096 C794      		ror r12					
 132 0098 B794      		ror r11					
 133 009a A794      		ror r10					
 134 009c A795      		ror r26					
 135 009e B795      		ror r27					
 136 00a0 E794      		ror r14					
 137 00a2 F794      		ror r15					
 138 00a4 7795      		ror r23					
 139 00a6 9795      		ror r25					
 140 00a8 DA94      		dec r13					
 141 00aa 01F4      		brne L_A_102			
 142 00ac EE0C      		lsl r14					
 143 00ae BB1F      		rol r27					
 144 00b0 AA1F      		rol r26					
 145 00b2 AA1C      		rol r10					
 146 00b4 BB1C      		rol r11					
 147 00b6 CC1C      		rol r12					
 148               		
 149               	 ;  0 "" 2
 150               	.LVL11:
 151               	/* #NOAPP */
 152 00b8 2C2D      		mov r18,r12
 153 00ba 3B2D      		mov r19,r11
 154 00bc 4A2D      		mov r20,r10
 155               	.LVL12:
 156               	.LSM12:
 157 00be 6C5F      		subi r22,lo8(-(4))
 158               	.LVL13:
 159               	.LSM13:
 160 00c0 8F5F      		subi r24,lo8(-(1))
 161               	.LVL14:
 162 00c2 90E0      		ldi r25,lo8(0)
 163 00c4 70E0      		ldi r23,lo8(0)
 164 00c6 0E94 0000 		call __mulhi3
 165               	.LVL15:
 166               	.LSM14:
 167 00ca 502F      		mov r21,r16
 168               	/* #APP */
 169               	 ;  155 "pe0fko_FreqFromSi570.c" 1
 170 00cc 8894      		clc					
 171               		L_A_135:					
 172 00ce BB1F      		rol r27					
 173 00d0 AA1F      		rol r26					
 174 00d2 441F      		rol r20					
 175 00d4 331F      		rol r19					
 176 00d6 221F      		rol r18					
 177 00d8 001F      		rol r16					
 178 00da 551F      		rol r21					
 179 00dc 081B      		sub r16,r24				
 180 00de 590B      		sbc r21,r25				
 181 00e0 00F4      		brcc L_B_135			
 182 00e2 080F      		add r16,r24				
 183 00e4 591F      		adc r21,r25				
 184 00e6 8894      		clc					
 185 00e8 00C0      		rjmp L_C_135			
 186               		L_B_135:					
 187 00ea 0894      		sec					
 188               		L_C_135:					
 189 00ec 1A95      		dec r17					
 190 00ee 01F4      		brne L_A_135			
 191               		L_X_135:					
 192               		
 193               	 ;  0 "" 2
 194               	.LVL16:
 195               	/* #NOAPP */
 196 00f0 B083      		st Z,r27
 197 00f2 A183      		std Z+1,r26
 198 00f4 4283      		std Z+2,r20
 199 00f6 3383      		std Z+3,r19
 200               	.LVL17:
 201               	.LBE7:
 202               	.LBE6:
 203               	.LSM15:
 204 00f8 8081      		ld r24,Z
 205 00fa 9181      		ldd r25,Z+1
 206 00fc A281      		ldd r26,Z+2
 207 00fe B381      		ldd r27,Z+3
 208 0100 8093 0000 		sts R+29,r24
 209 0104 9093 0000 		sts R+29+1,r25
 210 0108 A093 0000 		sts R+29+2,r26
 211 010c B093 0000 		sts R+29+3,r27
 212 0110 00C0      		rjmp .L9
 213               	.LVL18:
 214               	.L11:
 215               	.LSM16:
 216 0112 4430      		cpi r20,lo8(4)
 217 0114 01F0      		breq .+2
 218 0116 00C0      		rjmp .L1
 219               	.LSM17:
 220 0118 8C81      		ldd r24,Y+4
 221 011a 8A30      		cpi r24,lo8(10)
 222 011c 00F0      		brlo .+2
 223 011e 00C0      		rjmp .L1
 224               	.LSM18:
 225 0120 C82F      		mov r28,r24
 226               	.LVL19:
 227 0122 D0E0      		ldi r29,lo8(0)
 228 0124 CC0F      		lsl r28
 229 0126 DD1F      		rol r29
 230 0128 CC0F      		lsl r28
 231 012a DD1F      		rol r29
 232 012c C050      		subi r28,lo8(-(R))
 233 012e D040      		sbci r29,hi8(-(R))
 234 0130 8081      		ld r24,Z
 235 0132 9181      		ldd r25,Z+1
 236 0134 A281      		ldd r26,Z+2
 237 0136 B381      		ldd r27,Z+3
 238 0138 8D8F      		std Y+29,r24
 239 013a 9E8F      		std Y+30,r25
 240 013c AF8F      		std Y+31,r26
 241 013e B8A3      		std Y+32,r27
 242               	.LVL20:
 243               	.L9:
 244               	.LSM19:
 245 0140 8091 0000 		lds r24,Status2
 246 0144 8260      		ori r24,lo8(2)
 247 0146 8093 0000 		sts Status2,r24
 248 014a 00C0      		rjmp .L1
 249               	.LVL21:
 250               	.L5:
 251               	.LSM20:
 252 014c 4430      		cpi r20,lo8(4)
 253 014e 01F4      		brne .L1
 254               	.LSM21:
 255 0150 8081      		ld r24,Z
 256 0152 9181      		ldd r25,Z+1
 257 0154 A281      		ldd r26,Z+2
 258 0156 B381      		ldd r27,Z+3
 259 0158 8093 0000 		sts R+23,r24
 260 015c 9093 0000 		sts R+23+1,r25
 261 0160 A093 0000 		sts R+23+2,r26
 262 0164 B093 0000 		sts R+23+3,r27
 263               	.LSM22:
 264 0168 CB01      		movw r24,r22
 265 016a 60E0      		ldi r22,lo8(E+23)
 266 016c 70E0      		ldi r23,hi8(E+23)
 267               	.LVL22:
 268 016e 44E0      		ldi r20,lo8(4)
 269 0170 50E0      		ldi r21,hi8(4)
 270               	.LVL23:
 271 0172 0E94 0000 		call __eewr_block_usb162
 272               	.LVL24:
 273 0176 00C0      		rjmp .L9
 274               	.LVL25:
 275               	.L6:
 276               	.LSM23:
 277 0178 4430      		cpi r20,lo8(4)
 278 017a 01F4      		brne .L1
 279               	.LSM24:
 280 017c 6C81      		ldd r22,Y+4
 281               	.LVL26:
 282 017e 6A30      		cpi r22,lo8(10)
 283 0180 00F4      		brsh .L1
 284               	.LSM25:
 285 0182 70E0      		ldi r23,lo8(0)
 286 0184 660F      		lsl r22
 287 0186 771F      		rol r23
 288 0188 660F      		lsl r22
 289 018a 771F      		rol r23
 290 018c 6050      		subi r22,lo8(-(E+29))
 291 018e 7040      		sbci r23,hi8(-(E+29))
 292 0190 CF01      		movw r24,r30
 293 0192 44E0      		ldi r20,lo8(4)
 294 0194 50E0      		ldi r21,hi8(4)
 295               	.LVL27:
 296 0196 0E94 0000 		call __eewr_block_usb162
 297               	.LVL28:
 298               	.LSM26:
 299 019a CE01      		movw r24,r28
 300 019c 0496      		adiw r24,4
 301 019e 60E0      		ldi r22,lo8(E+69)
 302 01a0 70E0      		ldi r23,hi8(E+69)
 303 01a2 41E0      		ldi r20,lo8(1)
 304 01a4 50E0      		ldi r21,hi8(1)
 305 01a6 00C0      		rjmp .L10
 306               	.LVL29:
 307               	.L12:
 308               	.LSM27:
 309 01a8 4230      		cpi r20,lo8(2)
 310 01aa 01F4      		brne .L1
 311               	.LSM28:
 312 01ac 8081      		ld r24,Z
 313 01ae 9181      		ldd r25,Z+1
 314 01b0 9093 0000 		sts R+27+1,r25
 315 01b4 8093 0000 		sts R+27,r24
 316               	.LSM29:
 317 01b8 CB01      		movw r24,r22
 318 01ba 60E0      		ldi r22,lo8(E+27)
 319 01bc 70E0      		ldi r23,hi8(E+27)
 320               	.LVL30:
 321 01be 42E0      		ldi r20,lo8(2)
 322 01c0 50E0      		ldi r21,hi8(2)
 323               	.LVL31:
 324               	.L10:
 325 01c2 0E94 0000 		call __eewr_block_usb162
 326               	.LVL32:
 327               	.L1:
 328               	/* epilogue start */
 329               	.LSM30:
 330 01c6 DF91      		pop r29
 331 01c8 CF91      		pop r28
 332 01ca 1F91      		pop r17
 333 01cc 0F91      		pop r16
 334 01ce FF90      		pop r15
 335 01d0 EF90      		pop r14
 336 01d2 DF90      		pop r13
 337 01d4 CF90      		pop r12
 338 01d6 BF90      		pop r11
 339 01d8 AF90      		pop r10
 340 01da 0895      		ret
 341               	.LFE7:
 343               		.section	.text.usbFunctionSetup,"ax",@progbits
 344               	.global	usbFunctionSetup
 346               	usbFunctionSetup:
 347               	.LFB8:
 348               	.LSM31:
 349               	.LVL33:
 350 0000 1F93      		push r17
 351 0002 CF93      		push r28
 352 0004 DF93      		push r29
 353               	/* prologue: function */
 354               	/* frame size = 0 */
 355               	/* stack size = 3 */
 356               	.L__stack_usage = 3
 357 0006 EC01      		movw r28,r24
 358               	.LSM32:
 359 0008 1C81      		ldd r17,Y+4
 360               	.LVL34:
 361               	.LSM33:
 362 000a 20E0      		ldi r18,lo8(replyBuf)
 363 000c 30E0      		ldi r19,hi8(replyBuf)
 364 000e 3093 0000 		sts usbMsgPtr+1,r19
 365 0012 2093 0000 		sts usbMsgPtr,r18
 366               	.LSM34:
 367 0016 8FEF      		ldi r24,lo8(-1)
 368               	.LVL35:
 369 0018 8093 0000 		sts replyBuf,r24
 370               	.LSM35:
 371 001c 85B1      		in r24,37-32
 372 001e 94E0      		ldi r25,lo8(4)
 373 0020 8927      		eor r24,r25
 374 0022 85B9      		out 37-32,r24
 375               	.LSM36:
 376 0024 8981      		ldd r24,Y+1
 377 0026 8035      		cpi r24,lo8(80)
 378 0028 01F4      		brne .+2
 379 002a 00C0      		rjmp .L24
 380 002c 8135      		cpi r24,lo8(81)
 381 002e 00F4      		brsh .L34
 382 0030 8B33      		cpi r24,lo8(59)
 383 0032 01F4      		brne .+2
 384 0034 00C0      		rjmp .L19
 385 0036 8C33      		cpi r24,lo8(60)
 386 0038 00F4      		brsh .L35
 387 003a 8F30      		cpi r24,lo8(15)
 388 003c 01F4      		brne .+2
 389 003e 00C0      		rjmp .L127
 390 0040 8031      		cpi r24,lo8(16)
 391 0042 00F4      		brsh .L36
 392 0044 8823      		tst r24
 393 0046 01F0      		breq .L15
 394 0048 00C0      		rjmp .L114
 395               	.L36:
 396 004a 8731      		cpi r24,lo8(23)
 397 004c 01F0      		breq .L17
 398 004e 8A33      		cpi r24,lo8(58)
 399 0050 01F0      		breq .+2
 400 0052 00C0      		rjmp .L114
 401 0054 00C0      		rjmp .L134
 402               	.L35:
 403 0056 8D33      		cpi r24,lo8(61)
 404 0058 01F4      		brne .+2
 405 005a 00C0      		rjmp .L21
 406 005c 8D33      		cpi r24,lo8(61)
 407 005e 00F4      		brsh .+2
 408 0060 00C0      		rjmp .L20
 409 0062 8F33      		cpi r24,lo8(63)
 410 0064 01F4      		brne .+2
 411 0066 00C0      		rjmp .L22
 412 0068 8134      		cpi r24,lo8(65)
 413 006a 01F0      		breq .+2
 414 006c 00C0      		rjmp .L114
 415 006e 00C0      		rjmp .L135
 416               	.L34:
 417 0070 8636      		cpi r24,lo8(102)
 418 0072 01F4      		brne .+2
 419 0074 00C0      		rjmp .L29
 420 0076 8736      		cpi r24,lo8(103)
 421 0078 00F4      		brsh .L37
 422 007a 8136      		cpi r24,lo8(97)
 423 007c 01F4      		brne .+2
 424 007e 00C0      		rjmp .L26
 425 0080 8236      		cpi r24,lo8(98)
 426 0082 00F4      		brsh .L38
 427 0084 8135      		cpi r24,lo8(81)
 428 0086 01F0      		breq .+2
 429 0088 00C0      		rjmp .L114
 430 008a 00C0      		rjmp .L25
 431               	.L38:
 432 008c 8436      		cpi r24,lo8(100)
 433 008e 01F4      		brne .+2
 434 0090 00C0      		rjmp .L27
 435 0092 8536      		cpi r24,lo8(101)
 436 0094 01F0      		breq .+2
 437 0096 00C0      		rjmp .L114
 438 0098 00C0      		rjmp .L136
 439               	.L37:
 440 009a 8836      		cpi r24,lo8(104)
 441 009c 01F4      		brne .+2
 442 009e 00C0      		rjmp .L31
 443 00a0 8836      		cpi r24,lo8(104)
 444 00a2 00F4      		brsh .+2
 445 00a4 00C0      		rjmp .L30
 446 00a6 8E36      		cpi r24,lo8(110)
 447 00a8 01F4      		brne .+2
 448 00aa 00C0      		rjmp .L32
 449 00ac 8F36      		cpi r24,lo8(111)
 450 00ae 01F0      		breq .+2
 451 00b0 00C0      		rjmp .L114
 452 00b2 00C0      		rjmp .L33
 453               	.L15:
 454               	.LSM37:
 455 00b4 8DE0      		ldi r24,lo8(4109)
 456 00b6 90E1      		ldi r25,hi8(4109)
 457 00b8 00C0      		rjmp .L132
 458               	.L17:
 459               	.LSM38:
 460 00ba 8D81      		ldd r24,Y+5
 461 00bc 8823      		tst r24
 462 00be 01F4      		brne .L39
 463               	.LSM39:
 464 00c0 1830      		cpi r17,lo8(8)
 465 00c2 00F4      		brsh .L40
 466               	.LSM40:
 467 00c4 612F      		mov r22,r17
 468 00c6 70E0      		ldi r23,lo8(0)
 469 00c8 6D5D      		subi r22,lo8(-(35))
 470 00ca 7F4F      		sbci r23,hi8(-(35))
 471 00cc 660F      		lsl r22
 472 00ce 771F      		rol r23
 473 00d0 CB01      		movw r24,r22
 474 00d2 8050      		subi r24,lo8(-(R))
 475 00d4 9040      		sbci r25,hi8(-(R))
 476 00d6 2A81      		ldd r18,Y+2
 477 00d8 3B81      		ldd r19,Y+3
 478 00da FC01      		movw r30,r24
 479 00dc 3183      		std Z+1,r19
 480 00de 2083      		st Z,r18
 481               	.LSM41:
 482 00e0 6050      		subi r22,lo8(-(E))
 483 00e2 7040      		sbci r23,hi8(-(E))
 484               	.LSM42:
 485 00e4 42E0      		ldi r20,lo8(2)
 486 00e6 50E0      		ldi r21,hi8(2)
 487 00e8 0E94 0000 		call __eewr_block_usb162
 488               	.LVL36:
 489               	.L40:
 490               	.LSM43:
 491 00ec 80E0      		ldi r24,lo8(R+70)
 492 00ee 90E0      		ldi r25,hi8(R+70)
 493 00f0 00C0      		rjmp .L128
 494               	.L39:
 495               	.LSM44:
 496 00f2 1830      		cpi r17,lo8(8)
 497 00f4 00F4      		brsh .L41
 498               	.LSM45:
 499 00f6 612F      		mov r22,r17
 500 00f8 70E0      		ldi r23,lo8(0)
 501 00fa 655D      		subi r22,lo8(-(43))
 502 00fc 7F4F      		sbci r23,hi8(-(43))
 503 00fe 660F      		lsl r22
 504 0100 771F      		rol r23
 505 0102 CB01      		movw r24,r22
 506 0104 8050      		subi r24,lo8(-(R))
 507 0106 9040      		sbci r25,hi8(-(R))
 508 0108 2A81      		ldd r18,Y+2
 509 010a 3B81      		ldd r19,Y+3
 510 010c FC01      		movw r30,r24
 511 010e 3183      		std Z+1,r19
 512 0110 2083      		st Z,r18
 513               	.LSM46:
 514 0112 6050      		subi r22,lo8(-(E))
 515 0114 7040      		sbci r23,hi8(-(E))
 516               	.LSM47:
 517 0116 42E0      		ldi r20,lo8(2)
 518 0118 50E0      		ldi r21,hi8(2)
 519 011a 0E94 0000 		call __eewr_block_usb162
 520               	.L41:
 521               	.LSM48:
 522 011e 80E0      		ldi r24,lo8(R+86)
 523 0120 90E0      		ldi r25,hi8(R+86)
 524               	.L128:
 525 0122 9093 0000 		sts usbMsgPtr+1,r25
 526 0126 8093 0000 		sts usbMsgPtr,r24
 527               	.LSM49:
 528 012a 80E1      		ldi r24,lo8(16)
 529 012c 00C0      		rjmp .L14
 530               	.L134:
 531               	.LSM50:
 532 012e 612F      		mov r22,r17
 533 0130 70E0      		ldi r23,lo8(0)
 534 0132 660F      		lsl r22
 535 0134 771F      		rol r23
 536 0136 660F      		lsl r22
 537 0138 771F      		rol r23
 538 013a 6050      		subi r22,lo8(-(R+29))
 539 013c 7040      		sbci r23,hi8(-(R+29))
 540 013e 7093 0000 		sts usbMsgPtr+1,r23
 541 0142 6093 0000 		sts usbMsgPtr,r22
 542 0146 00C0      		rjmp .L129
 543               	.L19:
 544               	.LSM51:
 545 0148 80E0      		ldi r24,lo8(R+27)
 546 014a 90E0      		ldi r25,hi8(R+27)
 547 014c 9093 0000 		sts usbMsgPtr+1,r25
 548 0150 8093 0000 		sts usbMsgPtr,r24
 549 0154 00C0      		rjmp .L126
 550               	.L20:
 551               	.LSM52:
 552 0156 612F      		mov r22,r17
 553 0158 70E0      		ldi r23,lo8(0)
 554 015a 660F      		lsl r22
 555 015c 771F      		rol r23
 556 015e 660F      		lsl r22
 557 0160 771F      		rol r23
 558 0162 6050      		subi r22,lo8(-(E+29))
 559 0164 7040      		sbci r23,hi8(-(E+29))
 560 0166 C901      		movw r24,r18
 561 0168 44E0      		ldi r20,lo8(4)
 562 016a 50E0      		ldi r21,hi8(4)
 563 016c 0E94 0000 		call __eerd_block_usb162
 564               	.L129:
 565               	.LSM53:
 566 0170 84E0      		ldi r24,lo8(4)
 567 0172 00C0      		rjmp .L14
 568               	.L21:
 569               	.LSM54:
 570 0174 80E0      		ldi r24,lo8(R+23)
 571 0176 90E0      		ldi r25,hi8(R+23)
 572 0178 9093 0000 		sts usbMsgPtr+1,r25
 573 017c 8093 0000 		sts usbMsgPtr,r24
 574 0180 00C0      		rjmp .L129
 575               	.L22:
 576               	.LSM55:
 577 0182 0E94 0000 		call GetRegFromSi570
 578 0186 00C0      		rjmp .L14
 579               	.L135:
 580               	.LSM56:
 581 0188 8A81      		ldd r24,Y+2
 582 018a 8F3F      		cpi r24,lo8(-1)
 583 018c 01F4      		brne .L42
 584               	.LSM57:
 585 018e CE01      		movw r24,r28
 586 0190 0296      		adiw r24,2
 587 0192 60E0      		ldi r22,lo8(E)
 588 0194 70E0      		ldi r23,hi8(E)
 589 0196 41E0      		ldi r20,lo8(1)
 590 0198 50E0      		ldi r21,hi8(1)
 591 019a 0E94 0000 		call __eewr_block_usb162
 592               	.L127:
 593               	.LSM58:
 594 019e 8091 0000 		lds r24,Status1
 595 01a2 8260      		ori r24,lo8(2)
 596 01a4 8093 0000 		sts Status1,r24
 597               	.LSM59:
 598 01a8 80E0      		ldi r24,lo8(0)
 599 01aa 00C0      		rjmp .L14
 600               	.L42:
 601               	.LSM60:
 602 01ac 8823      		tst r24
 603 01ae 01F4      		brne .+2
 604 01b0 00C0      		rjmp .L43
 605               	.LSM61:
 606 01b2 8093 0000 		sts replyBuf,r24
 607               	.LSM62:
 608 01b6 1330      		cpi r17,lo8(3)
 609 01b8 01F0      		breq .L47
 610 01ba 1430      		cpi r17,lo8(4)
 611 01bc 00F4      		brsh .L52
 612 01be 1130      		cpi r17,lo8(1)
 613 01c0 01F0      		breq .L45
 614 01c2 CE01      		movw r24,r28
 615 01c4 0296      		adiw r24,2
 616 01c6 1230      		cpi r17,lo8(2)
 617 01c8 00F4      		brsh .L46
 618 01ca 00C0      		rjmp .L137
 619               	.L52:
 620 01cc 1530      		cpi r17,lo8(5)
 621 01ce 01F0      		breq .L49
 622 01d0 1530      		cpi r17,lo8(5)
 623 01d2 00F0      		brlo .L48
 624 01d4 1630      		cpi r17,lo8(6)
 625 01d6 01F0      		breq .L50
 626 01d8 1730      		cpi r17,lo8(7)
 627 01da 01F0      		breq .+2
 628 01dc 00C0      		rjmp .L114
 629 01de 00C0      		rjmp .L138
 630               	.L137:
 631               	.LSM63:
 632 01e0 60E0      		ldi r22,lo8(E+1)
 633 01e2 70E0      		ldi r23,hi8(E+1)
 634 01e4 00C0      		rjmp .L131
 635               	.L45:
 636               	.LSM64:
 637 01e6 CE01      		movw r24,r28
 638 01e8 0296      		adiw r24,2
 639 01ea 60E0      		ldi r22,lo8(E+5)
 640 01ec 70E0      		ldi r23,hi8(E+5)
 641 01ee 00C0      		rjmp .L131
 642               	.L46:
 643               	.LSM65:
 644 01f0 60E0      		ldi r22,lo8(E+6)
 645 01f2 70E0      		ldi r23,hi8(E+6)
 646 01f4 00C0      		rjmp .L131
 647               	.L47:
 648               	.LSM66:
 649 01f6 CE01      		movw r24,r28
 650 01f8 0296      		adiw r24,2
 651 01fa 60E0      		ldi r22,lo8(E+7)
 652 01fc 70E0      		ldi r23,hi8(E+7)
 653 01fe 00C0      		rjmp .L131
 654               	.L48:
 655               	.LSM67:
 656 0200 CE01      		movw r24,r28
 657 0202 0296      		adiw r24,2
 658 0204 60E0      		ldi r22,lo8(E+2)
 659 0206 70E0      		ldi r23,hi8(E+2)
 660 0208 00C0      		rjmp .L131
 661               	.L49:
 662               	.LSM68:
 663 020a CE01      		movw r24,r28
 664 020c 0296      		adiw r24,2
 665 020e 60E0      		ldi r22,lo8(E+3)
 666 0210 70E0      		ldi r23,hi8(E+3)
 667 0212 00C0      		rjmp .L131
 668               	.L50:
 669               	.LSM69:
 670 0214 CE01      		movw r24,r28
 671 0216 0296      		adiw r24,2
 672 0218 60E0      		ldi r22,lo8(E+4)
 673 021a 70E0      		ldi r23,hi8(E+4)
 674 021c 00C0      		rjmp .L131
 675               	.L138:
 676               	.LSM70:
 677 021e CE01      		movw r24,r28
 678 0220 0296      		adiw r24,2
 679 0222 60E0      		ldi r22,lo8(E+8)
 680 0224 70E0      		ldi r23,hi8(E+8)
 681               	.L131:
 682 0226 41E0      		ldi r20,lo8(1)
 683 0228 50E0      		ldi r21,hi8(1)
 684 022a 0E94 0000 		call __eewr_block_usb162
 685 022e 00C0      		rjmp .L114
 686               	.L43:
 687               	.LSM71:
 688 0230 1330      		cpi r17,lo8(3)
 689 0232 01F0      		breq .L56
 690 0234 1430      		cpi r17,lo8(4)
 691 0236 00F4      		brsh .L61
 692 0238 1130      		cpi r17,lo8(1)
 693 023a 01F0      		breq .L54
 694 023c 1230      		cpi r17,lo8(2)
 695 023e 00F4      		brsh .L55
 696 0240 00C0      		rjmp .L139
 697               	.L61:
 698 0242 1530      		cpi r17,lo8(5)
 699 0244 01F0      		breq .L58
 700 0246 1530      		cpi r17,lo8(5)
 701 0248 00F0      		brlo .L57
 702 024a 1630      		cpi r17,lo8(6)
 703 024c 01F0      		breq .L59
 704 024e 1730      		cpi r17,lo8(7)
 705 0250 01F0      		breq .+2
 706 0252 00C0      		rjmp .L114
 707 0254 00C0      		rjmp .L140
 708               	.L139:
 709               	.LSM72:
 710 0256 8091 0000 		lds r24,R+1
 711 025a 00C0      		rjmp .L130
 712               	.L54:
 713               	.LSM73:
 714 025c 8091 0000 		lds r24,R+5
 715 0260 00C0      		rjmp .L130
 716               	.L55:
 717               	.LSM74:
 718 0262 8091 0000 		lds r24,R+6
 719 0266 00C0      		rjmp .L130
 720               	.L56:
 721               	.LSM75:
 722 0268 8091 0000 		lds r24,R+7
 723 026c 00C0      		rjmp .L130
 724               	.L57:
 725               	.LSM76:
 726 026e 8091 0000 		lds r24,R+2
 727 0272 00C0      		rjmp .L130
 728               	.L58:
 729               	.LSM77:
 730 0274 8091 0000 		lds r24,R+3
 731 0278 00C0      		rjmp .L130
 732               	.L59:
 733               	.LSM78:
 734 027a 8091 0000 		lds r24,R+4
 735 027e 00C0      		rjmp .L130
 736               	.L140:
 737               	.LSM79:
 738 0280 8091 0000 		lds r24,R+8
 739 0284 00C0      		rjmp .L130
 740               	.L24:
 741               	.LSM80:
 742 0286 9A81      		ldd r25,Y+2
 743 0288 8091 0000 		lds r24,Status1
 744 028c 9923      		tst r25
 745 028e 01F4      		brne .L62
 746               	.LSM81:
 747 0290 8E7F      		andi r24,lo8(-2)
 748 0292 8093 0000 		sts Status1,r24
 749               	.LSM82:
 750 0296 80E8      		ldi r24,lo8(-128)
 751 0298 0E94 0000 		call MoboPCF_set
 752 029c 00C0      		rjmp .L25
 753               	.L62:
 754               	.LSM83:
 755 029e 8160      		ori r24,lo8(1)
 756 02a0 8093 0000 		sts Status1,r24
 757               	.LSM84:
 758 02a4 8874      		andi r24,lo8(72)
 759 02a6 01F4      		brne .L25
 760               	.LSM85:
 761 02a8 1092 0000 		sts biasInit,__zero_reg__
 762               	.LSM86:
 763 02ac 80E8      		ldi r24,lo8(-128)
 764 02ae 0E94 0000 		call MoboPCF_clear
 765               	.L25:
 766               	.LSM87:
 767 02b2 1092 0000 		sts replyBuf,__zero_reg__
 768               	.LSM88:
 769 02b6 189B      		sbis 35-32,0
 770 02b8 00C0      		rjmp .L63
 771               	.LSM89:
 772 02ba 80E2      		ldi r24,lo8(32)
 773 02bc 8093 0000 		sts replyBuf,r24
 774               	.L63:
 775               	.LSM90:
 776 02c0 199B      		sbis 35-32,1
 777 02c2 00C0      		rjmp .L64
 778               	.LSM91:
 779 02c4 8091 0000 		lds r24,replyBuf
 780 02c8 8260      		ori r24,lo8(2)
 781 02ca 8093 0000 		sts replyBuf,r24
 782               	.L64:
 783               	.LSM92:
 784 02ce 8091 0000 		lds r24,Status1
 785 02d2 80FF      		sbrs r24,0
 786 02d4 00C0      		rjmp .L114
 787               	.LSM93:
 788 02d6 8091 0000 		lds r24,replyBuf
 789 02da 8064      		ori r24,lo8(64)
 790 02dc 00C0      		rjmp .L130
 791               	.L26:
 792               	.LSM94:
 793 02de 1430      		cpi r17,lo8(4)
 794 02e0 00F4      		brsh .L65
 795               	.LSM95:
 796 02e2 E12F      		mov r30,r17
 797 02e4 F0E0      		ldi r31,lo8(0)
 798 02e6 EE0F      		lsl r30
 799 02e8 FF1F      		rol r31
 800 02ea E050      		subi r30,lo8(-(ad7991_adc))
 801 02ec F040      		sbci r31,hi8(-(ad7991_adc))
 802 02ee 8081      		ld r24,Z
 803 02f0 9181      		ldd r25,Z+1
 804 02f2 00C0      		rjmp .L132
 805               	.L65:
 806               	.LSM96:
 807 02f4 8091 0000 		lds r24,tmp100_data
 808 02f8 9091 0000 		lds r25,tmp100_data+1
 809 02fc 00C0      		rjmp .L132
 810               	.L27:
 811               	.LSM97:
 812 02fe 8A81      		ldd r24,Y+2
 813 0300 8823      		tst r24
 814 0302 01F0      		breq .L66
 815               	.LSM98:
 816 0304 1130      		cpi r17,lo8(1)
 817 0306 01F0      		breq .L68
 818 0308 1130      		cpi r17,lo8(1)
 819 030a 00F0      		brlo .L67
 820 030c 1230      		cpi r17,lo8(2)
 821 030e 01F0      		breq .L69
 822 0310 1330      		cpi r17,lo8(3)
 823 0312 01F0      		breq .+2
 824 0314 00C0      		rjmp .L114
 825 0316 00C0      		rjmp .L141
 826               	.L67:
 827               	.LSM99:
 828 0318 CE01      		movw r24,r28
 829 031a 0296      		adiw r24,2
 830 031c 60E0      		ldi r22,lo8(E+9)
 831 031e 70E0      		ldi r23,hi8(E+9)
 832 0320 41E0      		ldi r20,lo8(1)
 833 0322 50E0      		ldi r21,hi8(1)
 834 0324 0E94 0000 		call __eewr_block_usb162
 835               	.LSM100:
 836 0328 8A81      		ldd r24,Y+2
 837 032a 8093 0000 		sts R+9,r24
 838 032e 00C0      		rjmp .L114
 839               	.L68:
 840               	.LSM101:
 841 0330 CE01      		movw r24,r28
 842 0332 0296      		adiw r24,2
 843 0334 60E0      		ldi r22,lo8(E+108)
 844 0336 70E0      		ldi r23,hi8(E+108)
 845 0338 41E0      		ldi r20,lo8(1)
 846 033a 50E0      		ldi r21,hi8(1)
 847 033c 0E94 0000 		call __eewr_block_usb162
 848               	.LSM102:
 849 0340 8A81      		ldd r24,Y+2
 850 0342 8093 0000 		sts R+108,r24
 851 0346 00C0      		rjmp .L114
 852               	.L69:
 853               	.LSM103:
 854 0348 CE01      		movw r24,r28
 855 034a 0296      		adiw r24,2
 856 034c 60E0      		ldi r22,lo8(E+109)
 857 034e 70E0      		ldi r23,hi8(E+109)
 858 0350 41E0      		ldi r20,lo8(1)
 859 0352 50E0      		ldi r21,hi8(1)
 860 0354 0E94 0000 		call __eewr_block_usb162
 861               	.LSM104:
 862 0358 8A81      		ldd r24,Y+2
 863 035a 8093 0000 		sts R+109,r24
 864 035e 00C0      		rjmp .L114
 865               	.L141:
 866               	.LSM105:
 867 0360 CE01      		movw r24,r28
 868 0362 0296      		adiw r24,2
 869 0364 60E0      		ldi r22,lo8(E+110)
 870 0366 70E0      		ldi r23,hi8(E+110)
 871 0368 41E0      		ldi r20,lo8(1)
 872 036a 50E0      		ldi r21,hi8(1)
 873 036c 0E94 0000 		call __eewr_block_usb162
 874               	.LSM106:
 875 0370 8A81      		ldd r24,Y+2
 876 0372 8093 0000 		sts R+110,r24
 877 0376 00C0      		rjmp .L114
 878               	.L66:
 879               	.LSM107:
 880 0378 1130      		cpi r17,lo8(1)
 881 037a 01F0      		breq .L72
 882 037c 1130      		cpi r17,lo8(1)
 883 037e 00F0      		brlo .L71
 884 0380 1230      		cpi r17,lo8(2)
 885 0382 01F0      		breq .L73
 886 0384 1330      		cpi r17,lo8(3)
 887 0386 01F0      		breq .+2
 888 0388 00C0      		rjmp .L114
 889 038a 00C0      		rjmp .L142
 890               	.L71:
 891               	.LSM108:
 892 038c 8091 0000 		lds r24,R+9
 893 0390 00C0      		rjmp .L130
 894               	.L72:
 895               	.LSM109:
 896 0392 8091 0000 		lds r24,R+108
 897 0396 00C0      		rjmp .L130
 898               	.L73:
 899               	.LSM110:
 900 0398 8091 0000 		lds r24,R+109
 901 039c 00C0      		rjmp .L130
 902               	.L142:
 903               	.LSM111:
 904 039e 8091 0000 		lds r24,R+110
 905 03a2 00C0      		rjmp .L130
 906               	.L136:
 907               	.LSM112:
 908 03a4 8A81      		ldd r24,Y+2
 909 03a6 8823      		tst r24
 910 03a8 01F4      		brne .+2
 911 03aa 00C0      		rjmp .L75
 912               	.LSM113:
 913 03ac 1230      		cpi r17,lo8(2)
 914 03ae 01F0      		breq .L78
 915 03b0 1330      		cpi r17,lo8(3)
 916 03b2 00F4      		brsh .L81
 917 03b4 1123      		tst r17
 918 03b6 01F0      		breq .L76
 919 03b8 1130      		cpi r17,lo8(1)
 920 03ba 01F0      		breq .+2
 921 03bc 00C0      		rjmp .L114
 922 03be 00C0      		rjmp .L143
 923               	.L81:
 924 03c0 1330      		cpi r17,lo8(3)
 925 03c2 01F0      		breq .L79
 926 03c4 1430      		cpi r17,lo8(4)
 927 03c6 01F0      		breq .+2
 928 03c8 00C0      		rjmp .L114
 929 03ca 00C0      		rjmp .L144
 930               	.L76:
 931               	.LSM114:
 932 03cc CE01      		movw r24,r28
 933 03ce 0296      		adiw r24,2
 934 03d0 60E0      		ldi r22,lo8(E+18)
 935 03d2 70E0      		ldi r23,hi8(E+18)
 936 03d4 41E0      		ldi r20,lo8(1)
 937 03d6 50E0      		ldi r21,hi8(1)
 938 03d8 0E94 0000 		call __eewr_block_usb162
 939               	.LSM115:
 940 03dc 8A81      		ldd r24,Y+2
 941 03de 8093 0000 		sts R+18,r24
 942 03e2 00C0      		rjmp .L130
 943               	.L143:
 944               	.LSM116:
 945 03e4 CE01      		movw r24,r28
 946 03e6 0296      		adiw r24,2
 947 03e8 60E0      		ldi r22,lo8(E+19)
 948 03ea 70E0      		ldi r23,hi8(E+19)
 949 03ec 41E0      		ldi r20,lo8(1)
 950 03ee 50E0      		ldi r21,hi8(1)
 951 03f0 0E94 0000 		call __eewr_block_usb162
 952               	.LSM117:
 953 03f4 8A81      		ldd r24,Y+2
 954 03f6 8093 0000 		sts R+19,r24
 955 03fa 00C0      		rjmp .L130
 956               	.L78:
 957               	.LSM118:
 958 03fc CE01      		movw r24,r28
 959 03fe 0296      		adiw r24,2
 960 0400 60E0      		ldi r22,lo8(E+20)
 961 0402 70E0      		ldi r23,hi8(E+20)
 962 0404 41E0      		ldi r20,lo8(1)
 963 0406 50E0      		ldi r21,hi8(1)
 964 0408 0E94 0000 		call __eewr_block_usb162
 965               	.LSM119:
 966 040c 8A81      		ldd r24,Y+2
 967 040e 8093 0000 		sts R+20,r24
 968 0412 00C0      		rjmp .L130
 969               	.L79:
 970               	.LSM120:
 971 0414 CE01      		movw r24,r28
 972 0416 0296      		adiw r24,2
 973 0418 60E0      		ldi r22,lo8(E+21)
 974 041a 70E0      		ldi r23,hi8(E+21)
 975 041c 41E0      		ldi r20,lo8(1)
 976 041e 50E0      		ldi r21,hi8(1)
 977 0420 0E94 0000 		call __eewr_block_usb162
 978               	.LSM121:
 979 0424 8A81      		ldd r24,Y+2
 980 0426 8093 0000 		sts R+21,r24
 981 042a 00C0      		rjmp .L130
 982               	.L144:
 983               	.LSM122:
 984 042c CE01      		movw r24,r28
 985 042e 0296      		adiw r24,2
 986 0430 60E0      		ldi r22,lo8(E+22)
 987 0432 70E0      		ldi r23,hi8(E+22)
 988 0434 41E0      		ldi r20,lo8(1)
 989 0436 50E0      		ldi r21,hi8(1)
 990 0438 0E94 0000 		call __eewr_block_usb162
 991               	.LSM123:
 992 043c 8A81      		ldd r24,Y+2
 993 043e 8093 0000 		sts R+22,r24
 994 0442 00C0      		rjmp .L130
 995               	.L75:
 996               	.LSM124:
 997 0444 1230      		cpi r17,lo8(2)
 998 0446 01F0      		breq .L84
 999 0448 1330      		cpi r17,lo8(3)
 1000 044a 00F4      		brsh .L87
 1001 044c 1123      		tst r17
 1002 044e 01F0      		breq .L82
 1003 0450 1130      		cpi r17,lo8(1)
 1004 0452 01F0      		breq .+2
 1005 0454 00C0      		rjmp .L114
 1006 0456 00C0      		rjmp .L145
 1007               	.L87:
 1008 0458 1330      		cpi r17,lo8(3)
 1009 045a 01F0      		breq .L85
 1010 045c 1430      		cpi r17,lo8(4)
 1011 045e 01F0      		breq .+2
 1012 0460 00C0      		rjmp .L114
 1013 0462 00C0      		rjmp .L146
 1014               	.L82:
 1015               	.LSM125:
 1016 0464 8091 0000 		lds r24,R+18
 1017 0468 00C0      		rjmp .L130
 1018               	.L145:
 1019               	.LSM126:
 1020 046a 8091 0000 		lds r24,R+19
 1021 046e 00C0      		rjmp .L130
 1022               	.L84:
 1023               	.LSM127:
 1024 0470 8091 0000 		lds r24,R+20
 1025 0474 00C0      		rjmp .L130
 1026               	.L85:
 1027               	.LSM128:
 1028 0476 8091 0000 		lds r24,R+21
 1029 047a 00C0      		rjmp .L130
 1030               	.L146:
 1031               	.LSM129:
 1032 047c 8091 0000 		lds r24,R+22
 1033 0480 00C0      		rjmp .L130
 1034               	.L29:
 1035               	.LSM130:
 1036 0482 2A81      		ldd r18,Y+2
 1037 0484 3B81      		ldd r19,Y+3
 1038 0486 2115      		cp r18,__zero_reg__
 1039 0488 3105      		cpc r19,__zero_reg__
 1040 048a 01F4      		brne .+2
 1041 048c 00C0      		rjmp .L88
 1042               	.LSM131:
 1043 048e 1330      		cpi r17,lo8(3)
 1044 0490 01F0      		breq .L92
 1045 0492 1430      		cpi r17,lo8(4)
 1046 0494 00F4      		brsh .L96
 1047 0496 1130      		cpi r17,lo8(1)
 1048 0498 01F0      		breq .L90
 1049 049a CE01      		movw r24,r28
 1050 049c 0296      		adiw r24,2
 1051 049e 1230      		cpi r17,lo8(2)
 1052 04a0 00F4      		brsh .L91
 1053 04a2 00C0      		rjmp .L147
 1054               	.L96:
 1055 04a4 1530      		cpi r17,lo8(5)
 1056 04a6 01F4      		brne .+2
 1057 04a8 00C0      		rjmp .L94
 1058 04aa 1530      		cpi r17,lo8(5)
 1059 04ac 00F0      		brlo .L93
 1060 04ae 1630      		cpi r17,lo8(6)
 1061 04b0 01F0      		breq .+2
 1062 04b2 00C0      		rjmp .L126
 1063 04b4 00C0      		rjmp .L148
 1064               	.L147:
 1065               	.LSM132:
 1066 04b6 60E0      		ldi r22,lo8(E+10)
 1067 04b8 70E0      		ldi r23,hi8(E+10)
 1068 04ba 42E0      		ldi r20,lo8(2)
 1069 04bc 50E0      		ldi r21,hi8(2)
 1070 04be 0E94 0000 		call __eewr_block_usb162
 1071               	.LSM133:
 1072 04c2 8A81      		ldd r24,Y+2
 1073 04c4 9B81      		ldd r25,Y+3
 1074 04c6 9093 0000 		sts R+10+1,r25
 1075 04ca 8093 0000 		sts R+10,r24
 1076 04ce 00C0      		rjmp .L132
 1077               	.L90:
 1078               	.LSM134:
 1079 04d0 CE01      		movw r24,r28
 1080 04d2 0296      		adiw r24,2
 1081 04d4 60E0      		ldi r22,lo8(E+12)
 1082 04d6 70E0      		ldi r23,hi8(E+12)
 1083 04d8 42E0      		ldi r20,lo8(2)
 1084 04da 50E0      		ldi r21,hi8(2)
 1085 04dc 0E94 0000 		call __eewr_block_usb162
 1086               	.LSM135:
 1087 04e0 8A81      		ldd r24,Y+2
 1088 04e2 9B81      		ldd r25,Y+3
 1089 04e4 9093 0000 		sts R+12+1,r25
 1090 04e8 8093 0000 		sts R+12,r24
 1091 04ec 00C0      		rjmp .L132
 1092               	.L91:
 1093               	.LSM136:
 1094 04ee 60E0      		ldi r22,lo8(E+14)
 1095 04f0 70E0      		ldi r23,hi8(E+14)
 1096 04f2 42E0      		ldi r20,lo8(2)
 1097 04f4 50E0      		ldi r21,hi8(2)
 1098 04f6 0E94 0000 		call __eewr_block_usb162
 1099               	.LSM137:
 1100 04fa 8A81      		ldd r24,Y+2
 1101 04fc 9B81      		ldd r25,Y+3
 1102 04fe 9093 0000 		sts R+14+1,r25
 1103 0502 8093 0000 		sts R+14,r24
 1104 0506 00C0      		rjmp .L132
 1105               	.L92:
 1106               	.LSM138:
 1107 0508 CE01      		movw r24,r28
 1108 050a 0296      		adiw r24,2
 1109 050c 60E0      		ldi r22,lo8(E+16)
 1110 050e 70E0      		ldi r23,hi8(E+16)
 1111 0510 42E0      		ldi r20,lo8(2)
 1112 0512 50E0      		ldi r21,hi8(2)
 1113 0514 0E94 0000 		call __eewr_block_usb162
 1114               	.LSM139:
 1115 0518 8A81      		ldd r24,Y+2
 1116 051a 9B81      		ldd r25,Y+3
 1117 051c 9093 0000 		sts R+16+1,r25
 1118 0520 8093 0000 		sts R+16,r24
 1119 0524 00C0      		rjmp .L132
 1120               	.L93:
 1121               	.LSM140:
 1122 0526 CE01      		movw r24,r28
 1123 0528 0296      		adiw r24,2
 1124 052a 60E0      		ldi r22,lo8(E+102)
 1125 052c 70E0      		ldi r23,hi8(E+102)
 1126 052e 41E0      		ldi r20,lo8(1)
 1127 0530 50E0      		ldi r21,hi8(1)
 1128 0532 0E94 0000 		call __eewr_block_usb162
 1129               	.LSM141:
 1130 0536 8A81      		ldd r24,Y+2
 1131 0538 8093 0000 		sts R+102,r24
 1132 053c 00C0      		rjmp .L133
 1133               	.L94:
 1134               	.LSM142:
 1135 053e CE01      		movw r24,r28
 1136 0540 0296      		adiw r24,2
 1137 0542 60E0      		ldi r22,lo8(E+103)
 1138 0544 70E0      		ldi r23,hi8(E+103)
 1139 0546 41E0      		ldi r20,lo8(1)
 1140 0548 50E0      		ldi r21,hi8(1)
 1141 054a 0E94 0000 		call __eewr_block_usb162
 1142               	.LSM143:
 1143 054e 8A81      		ldd r24,Y+2
 1144 0550 8093 0000 		sts R+103,r24
 1145 0554 00C0      		rjmp .L133
 1146               	.L148:
 1147               	.LSM144:
 1148 0556 CE01      		movw r24,r28
 1149 0558 0296      		adiw r24,2
 1150 055a 60E0      		ldi r22,lo8(E+104)
 1151 055c 70E0      		ldi r23,hi8(E+104)
 1152 055e 41E0      		ldi r20,lo8(1)
 1153 0560 50E0      		ldi r21,hi8(1)
 1154 0562 0E94 0000 		call __eewr_block_usb162
 1155               	.LSM145:
 1156 0566 8A81      		ldd r24,Y+2
 1157 0568 8093 0000 		sts R+104,r24
 1158 056c 00C0      		rjmp .L133
 1159               	.L88:
 1160               	.LSM146:
 1161 056e 1330      		cpi r17,lo8(3)
 1162 0570 01F0      		breq .L100
 1163 0572 1430      		cpi r17,lo8(4)
 1164 0574 00F4      		brsh .L104
 1165 0576 1130      		cpi r17,lo8(1)
 1166 0578 01F0      		breq .L98
 1167 057a 1230      		cpi r17,lo8(2)
 1168 057c 00F4      		brsh .L99
 1169 057e 00C0      		rjmp .L149
 1170               	.L104:
 1171 0580 1530      		cpi r17,lo8(5)
 1172 0582 01F0      		breq .L102
 1173 0584 1530      		cpi r17,lo8(5)
 1174 0586 00F0      		brlo .L101
 1175 0588 1630      		cpi r17,lo8(6)
 1176 058a 01F0      		breq .+2
 1177 058c 00C0      		rjmp .L126
 1178 058e 00C0      		rjmp .L150
 1179               	.L149:
 1180               	.LSM147:
 1181 0590 8091 0000 		lds r24,R+10
 1182 0594 9091 0000 		lds r25,R+10+1
 1183               	.L132:
 1184 0598 9093 0000 		sts replyBuf+1,r25
 1185 059c 8093 0000 		sts replyBuf,r24
 1186 05a0 00C0      		rjmp .L126
 1187               	.L98:
 1188               	.LSM148:
 1189 05a2 8091 0000 		lds r24,R+12
 1190 05a6 9091 0000 		lds r25,R+12+1
 1191 05aa 00C0      		rjmp .L132
 1192               	.L99:
 1193               	.LSM149:
 1194 05ac 8091 0000 		lds r24,R+14
 1195 05b0 9091 0000 		lds r25,R+14+1
 1196 05b4 00C0      		rjmp .L132
 1197               	.L100:
 1198               	.LSM150:
 1199 05b6 8091 0000 		lds r24,R+16
 1200 05ba 9091 0000 		lds r25,R+16+1
 1201 05be 00C0      		rjmp .L132
 1202               	.L101:
 1203               	.LSM151:
 1204 05c0 8091 0000 		lds r24,R+102
 1205 05c4 00C0      		rjmp .L133
 1206               	.L102:
 1207               	.LSM152:
 1208 05c6 8091 0000 		lds r24,R+103
 1209 05ca 00C0      		rjmp .L133
 1210               	.L150:
 1211               	.LSM153:
 1212 05cc 8091 0000 		lds r24,R+104
 1213               	.L133:
 1214 05d0 8093 0000 		sts replyBuf,r24
 1215 05d4 00C0      		rjmp .L126
 1216               	.L30:
 1217               	.LSM154:
 1218 05d6 8A81      		ldd r24,Y+2
 1219 05d8 9B81      		ldd r25,Y+3
 1220 05da 0097      		sbiw r24,0
 1221 05dc 01F0      		breq .L105
 1222               	.LSM155:
 1223 05de CE01      		movw r24,r28
 1224 05e0 0296      		adiw r24,2
 1225 05e2 60E0      		ldi r22,lo8(E+105)
 1226 05e4 70E0      		ldi r23,hi8(E+105)
 1227 05e6 42E0      		ldi r20,lo8(2)
 1228 05e8 50E0      		ldi r21,hi8(2)
 1229 05ea 0E94 0000 		call __eewr_block_usb162
 1230               	.LSM156:
 1231 05ee 8A81      		ldd r24,Y+2
 1232 05f0 9B81      		ldd r25,Y+3
 1233 05f2 9093 0000 		sts R+105+1,r25
 1234 05f6 8093 0000 		sts R+105,r24
 1235               	.L105:
 1236               	.LSM157:
 1237 05fa 8091 0000 		lds r24,R+105
 1238 05fe 9091 0000 		lds r25,R+105+1
 1239 0602 00C0      		rjmp .L132
 1240               	.L31:
 1241               	.LSM158:
 1242 0604 1123      		tst r17
 1243 0606 01F0      		breq .L106
 1244               	.LSM159:
 1245 0608 CE01      		movw r24,r28
 1246 060a 0296      		adiw r24,2
 1247 060c 60E0      		ldi r22,lo8(E+107)
 1248 060e 70E0      		ldi r23,hi8(E+107)
 1249 0610 41E0      		ldi r20,lo8(1)
 1250 0612 50E0      		ldi r21,hi8(1)
 1251 0614 0E94 0000 		call __eewr_block_usb162
 1252               	.LSM160:
 1253 0618 8A81      		ldd r24,Y+2
 1254 061a 8093 0000 		sts R+107,r24
 1255               	.L106:
 1256               	.LSM161:
 1257 061e 8091 0000 		lds r24,R+107
 1258 0622 00C0      		rjmp .L130
 1259               	.L32:
 1260               	.LSM162:
 1261 0624 812F      		mov r24,r17
 1262 0626 6A81      		ldd r22,Y+2
 1263 0628 0E94 0000 		call pcf8574_byte
 1264               	.L33:
 1265               	.LSM163:
 1266 062c 812F      		mov r24,r17
 1267 062e 0E94 0000 		call pcf8574_read
 1268               	.L130:
 1269 0632 8093 0000 		sts replyBuf,r24
 1270               	.L114:
 1271               	.LSM164:
 1272 0636 81E0      		ldi r24,lo8(1)
 1273 0638 00C0      		rjmp .L14
 1274               	.L126:
 1275               	.LSM165:
 1276 063a 82E0      		ldi r24,lo8(2)
 1277               	.L14:
 1278               	/* epilogue start */
 1279               	.LSM166:
 1280 063c DF91      		pop r29
 1281 063e CF91      		pop r28
 1282               	.LVL37:
 1283 0640 1F91      		pop r17
 1284               	.LVL38:
 1285 0642 0895      		ret
 1286               	.LFE8:
 1288               		.section	.text.maintask,"ax",@progbits
 1289               	.global	maintask
 1291               	maintask:
 1292               	.LFB9:
 1293               	.LSM167:
 1294               	/* prologue: function */
 1295               	/* frame size = 0 */
 1296               	/* stack size = 0 */
 1297               	.L__stack_usage = 0
 1298               	.LSM168:
 1299 0000 0E94 0000 		call encoder_scan
 1300               	.LSM169:
 1301 0004 4091 0000 		lds r20,Status1
 1302 0008 41FD      		sbrc r20,1
 1303 000a 00C0      		rjmp .L152
 1304               	.LSM170:
 1305 000c 8091 8400 		lds r24,132
 1306 0010 9091 8500 		lds r25,132+1
 1307 0014 2091 0000 		lds r18,Timerval.2155
 1308 0018 3091 0000 		lds r19,Timerval.2155+1
 1309 001c 8217      		cp r24,r18
 1310 001e 9307      		cpc r25,r19
 1311 0020 00F4      		brsh .L153
 1312               	.LBB8:
 1313               	.LSM171:
 1314 0022 8091 0000 		lds r24,a.2162
 1315 0026 8F5F      		subi r24,lo8(-(1))
 1316 0028 8093 0000 		sts a.2162,r24
 1317               	.LSM172:
 1318 002c 8B30      		cpi r24,lo8(11)
 1319 002e 00F0      		brlo .L153
 1320               	.LSM173:
 1321 0030 40FD      		sbrc r20,0
 1322 0032 00C0      		rjmp .L154
 1323               	.LSM174:
 1324 0034 8091 0000 		lds r24,R+2
 1325 0038 0E94 0000 		call tmp100
 1326               	.LSM175:
 1327 003c 8091 0000 		lds r24,R+4
 1328 0040 0E94 0000 		call ad7991_poll
 1329               	.LSM176:
 1330 0044 0E94 0000 		call lcd_display_P_SWR_V_C_T
 1331               	.L154:
 1332               	.LSM177:
 1333 0048 1092 0000 		sts a.2162,__zero_reg__
 1334               	.L153:
 1335               	.LBE8:
 1336               	.LSM178:
 1337 004c 8091 8400 		lds r24,132
 1338 0050 9091 8500 		lds r25,132+1
 1339 0054 9093 0000 		sts Timerval.2155+1,r25
 1340 0058 8093 0000 		sts Timerval.2155,r24
 1341               	.LSM179:
 1342 005c 8091 8400 		lds r24,132
 1343 0060 9091 8500 		lds r25,132+1
 1344 0064 6AE9      		ldi r22,lo8(6554)
 1345 0066 79E1      		ldi r23,hi8(6554)
 1346 0068 0E94 0000 		call __udivmodhi4
 1347               	.LVL39:
 1348               	.LSM180:
 1349 006c 8091 0000 		lds r24,lastIteration1.2153
 1350 0070 9091 0000 		lds r25,lastIteration1.2153+1
 1351 0074 6817      		cp r22,r24
 1352 0076 7907      		cpc r23,r25
 1353 0078 01F4      		brne .+2
 1354 007a 00C0      		rjmp .L155
 1355               	.LBB9:
 1356               	.LSM181:
 1357 007c 7093 0000 		sts lastIteration1.2153+1,r23
 1358 0080 6093 0000 		sts lastIteration1.2153,r22
 1359               	.LSM182:
 1360 0084 85B1      		in r24,37-32
 1361 0086 98E0      		ldi r25,lo8(8)
 1362 0088 8927      		eor r24,r25
 1363 008a 85B9      		out 37-32,r24
 1364               	.LSM183:
 1365 008c 8091 0000 		lds r24,Status1
 1366 0090 80FF      		sbrs r24,0
 1367 0092 00C0      		rjmp .L156
 1368               	.LSM184:
 1369 0094 8091 0000 		lds r24,R+2
 1370 0098 0E94 0000 		call tmp100
 1371               	.LVL40:
 1372               	.LSM185:
 1373 009c 2091 0000 		lds r18,tmp100_data+1
 1374 00a0 3327      		clr r19
 1375 00a2 27FD      		sbrc r18,7
 1376 00a4 3095      		com r19
 1377 00a6 8091 0000 		lds r24,R+9
 1378 00aa 90E0      		ldi r25,lo8(0)
 1379 00ac 8217      		cp r24,r18
 1380 00ae 9307      		cpc r25,r19
 1381 00b0 04F4      		brge .L157
 1382               	.LSM186:
 1383 00b2 8091 0000 		lds r24,Status1
 1384 00b6 8860      		ori r24,lo8(8)
 1385 00b8 8093 0000 		sts Status1,r24
 1386               	.LSM187:
 1387 00bc 80E8      		ldi r24,lo8(-128)
 1388 00be 0E94 0000 		call MoboPCF_set
 1389 00c2 00C0      		rjmp .L157
 1390               	.LVL41:
 1391               	.L156:
 1392               	.LSM188:
 1393 00c4 877F      		andi r24,lo8(-9)
 1394 00c6 8093 0000 		sts Status1,r24
 1395               	.LVL42:
 1396               	.L157:
 1397               	.LSM189:
 1398 00ca 4091 0000 		lds r20,Status2
 1399 00ce 2091 0000 		lds r18,tmp100_data+1
 1400 00d2 47FF      		sbrs r20,7
 1401 00d4 00C0      		rjmp .L158
 1402               	.LSM190:
 1403 00d6 3327      		clr r19
 1404 00d8 27FD      		sbrc r18,7
 1405 00da 3095      		com r19
 1406 00dc 8091 0000 		lds r24,R+109
 1407 00e0 90E0      		ldi r25,lo8(0)
 1408 00e2 8217      		cp r24,r18
 1409 00e4 9307      		cpc r25,r19
 1410 00e6 04F0      		brlt .L159
 1411               	.LBB10:
 1412               	.LSM191:
 1413 00e8 4F77      		andi r20,lo8(127)
 1414 00ea 4093 0000 		sts Status2,r20
 1415               	.LSM192:
 1416 00ee 8091 0000 		lds r24,R+8
 1417 00f2 0E94 0000 		call pcf8574_read
 1418               	.LVL43:
 1419               	.LSM193:
 1420 00f6 6091 0000 		lds r22,R+110
 1421 00fa 6095      		com r22
 1422 00fc 6823      		and r22,r24
 1423               	.LVL44:
 1424 00fe 00C0      		rjmp .L173
 1425               	.LVL45:
 1426               	.L158:
 1427               	.LBE10:
 1428               	.LSM194:
 1429 0100 3327      		clr r19
 1430 0102 27FD      		sbrc r18,7
 1431 0104 3095      		com r19
 1432 0106 8091 0000 		lds r24,R+108
 1433 010a 90E0      		ldi r25,lo8(0)
 1434 010c 8217      		cp r24,r18
 1435 010e 9307      		cpc r25,r19
 1436 0110 04F4      		brge .L159
 1437               	.LBB11:
 1438               	.LSM195:
 1439 0112 4068      		ori r20,lo8(-128)
 1440 0114 4093 0000 		sts Status2,r20
 1441               	.LSM196:
 1442 0118 8091 0000 		lds r24,R+8
 1443 011c 0E94 0000 		call pcf8574_read
 1444               	.LVL46:
 1445               	.LSM197:
 1446 0120 6091 0000 		lds r22,R+110
 1447 0124 682B      		or r22,r24
 1448               	.LVL47:
 1449               	.L173:
 1450               	.LSM198:
 1451 0126 8091 0000 		lds r24,R+8
 1452 012a 0E94 0000 		call pcf8574_byte
 1453               	.L159:
 1454               	.LBE11:
 1455               	.LSM199:
 1456 012e 9091 0000 		lds r25,Status2
 1457 0132 94FF      		sbrs r25,4
 1458 0134 00C0      		rjmp .L160
 1459               	.LSM200:
 1460 0136 91FF      		sbrs r25,1
 1461 0138 00C0      		rjmp .L161
 1462               	.LSM201:
 1463 013a 1092 0000 		sts fast_patience.2165,__zero_reg__
 1464 013e 00C0      		rjmp .L162
 1465               	.L161:
 1466               	.LSM202:
 1467 0140 8091 0000 		lds r24,fast_patience.2165
 1468 0144 8F5F      		subi r24,lo8(-(1))
 1469 0146 8093 0000 		sts fast_patience.2165,r24
 1470               	.L162:
 1471               	.LSM203:
 1472 014a 8091 0000 		lds r24,fast_patience.2165
 1473 014e 8530      		cpi r24,lo8(5)
 1474 0150 00F0      		brlo .L160
 1475               	.LSM204:
 1476 0152 9F7E      		andi r25,lo8(-17)
 1477 0154 9093 0000 		sts Status2,r25
 1478               	.LSM205:
 1479 0158 1092 0000 		sts fast_patience.2165,__zero_reg__
 1480               	.L160:
 1481               	.LSM206:
 1482 015c 8091 0000 		lds r24,pushcount.2158
 1483 0160 8A30      		cpi r24,lo8(10)
 1484 0162 00F0      		brlo .L163
 1485               	.LSM207:
 1486 0164 6091 0000 		lds r22,R+69
 1487 0168 70E0      		ldi r23,lo8(0)
 1488 016a 660F      		lsl r22
 1489 016c 771F      		rol r23
 1490 016e 660F      		lsl r22
 1491 0170 771F      		rol r23
 1492 0172 6050      		subi r22,lo8(-(E+29))
 1493 0174 7040      		sbci r23,hi8(-(E+29))
 1494 0176 80E0      		ldi r24,lo8(R+29)
 1495 0178 90E0      		ldi r25,hi8(R+29)
 1496 017a 44E0      		ldi r20,lo8(4)
 1497 017c 50E0      		ldi r21,hi8(4)
 1498 017e 0E94 0000 		call __eewr_block_usb162
 1499               	.LSM208:
 1500 0182 80E0      		ldi r24,lo8(R+69)
 1501 0184 90E0      		ldi r25,hi8(R+69)
 1502 0186 60E0      		ldi r22,lo8(E+69)
 1503 0188 70E0      		ldi r23,hi8(E+69)
 1504 018a 41E0      		ldi r20,lo8(1)
 1505 018c 50E0      		ldi r21,hi8(1)
 1506 018e 0E94 0000 		call __eewr_block_usb162
 1507               	.LSM209:
 1508 0192 8091 0000 		lds r24,Status2
 1509 0196 8660      		ori r24,lo8(6)
 1510 0198 00C0      		rjmp .L174
 1511               	.L163:
 1512               	.LSM210:
 1513 019a 4F9B      		sbis 41-32,7
 1514 019c 00C0      		rjmp .L165
 1515               	.LSM211:
 1516 019e 8823      		tst r24
 1517 01a0 01F0      		breq .L166
 1518               	.LSM212:
 1519 01a2 8091 0000 		lds r24,R+69
 1520 01a6 8F5F      		subi r24,lo8(-(1))
 1521 01a8 8093 0000 		sts R+69,r24
 1522               	.LSM213:
 1523 01ac 8A30      		cpi r24,lo8(10)
 1524 01ae 00F0      		brlo .L167
 1525               	.LSM214:
 1526 01b0 81E0      		ldi r24,lo8(1)
 1527 01b2 8093 0000 		sts R+69,r24
 1528               	.L167:
 1529               	.LSM215:
 1530 01b6 E091 0000 		lds r30,R+69
 1531 01ba F0E0      		ldi r31,lo8(0)
 1532 01bc EE0F      		lsl r30
 1533 01be FF1F      		rol r31
 1534 01c0 EE0F      		lsl r30
 1535 01c2 FF1F      		rol r31
 1536 01c4 E050      		subi r30,lo8(-(R))
 1537 01c6 F040      		sbci r31,hi8(-(R))
 1538 01c8 858D      		ldd r24,Z+29
 1539 01ca 968D      		ldd r25,Z+30
 1540 01cc A78D      		ldd r26,Z+31
 1541 01ce B0A1      		ldd r27,Z+32
 1542 01d0 8093 0000 		sts R+29,r24
 1543 01d4 9093 0000 		sts R+29+1,r25
 1544 01d8 A093 0000 		sts R+29+2,r26
 1545 01dc B093 0000 		sts R+29+3,r27
 1546               	.LSM216:
 1547 01e0 8091 0000 		lds r24,Status2
 1548 01e4 8260      		ori r24,lo8(2)
 1549               	.L174:
 1550 01e6 8093 0000 		sts Status2,r24
 1551 01ea 00C0      		rjmp .L164
 1552               	.L166:
 1553               	.LSM217:
 1554 01ec 1092 0000 		sts pushcount.2158,__zero_reg__
 1555 01f0 00C0      		rjmp .L164
 1556               	.L165:
 1557               	.LSM218:
 1558 01f2 9091 0000 		lds r25,Status2
 1559 01f6 92FD      		sbrc r25,2
 1560 01f8 00C0      		rjmp .L164
 1561               	.LSM219:
 1562 01fa 8F5F      		subi r24,lo8(-(1))
 1563 01fc 8093 0000 		sts pushcount.2158,r24
 1564               	.L164:
 1565               	.LSM220:
 1566 0200 8091 0000 		lds r24,Status2
 1567 0204 82FF      		sbrs r24,2
 1568 0206 00C0      		rjmp .L168
 1569               	.LSM221:
 1570 0208 0E94 0000 		call lcd_display_Memory_Stored
 1571               	.L168:
 1572               	.LSM222:
 1573 020c 0E94 0000 		call lcd_display_TRX_status_on_change
 1574               	.LSM223:
 1575 0210 8091 0000 		lds r24,Status1
 1576 0214 80FF      		sbrs r24,0
 1577 0216 00C0      		rjmp .L155
 1578               	.LSM224:
 1579 0218 0E94 0000 		call lcd_display_P_SWR_V_C_T
 1580               	.L155:
 1581               	.LBE9:
 1582               	.LSM225:
 1583 021c 8091 8400 		lds r24,132
 1584 0220 9091 8500 		lds r25,132+1
 1585 0224 60E9      		ldi r22,lo8(656)
 1586 0226 72E0      		ldi r23,hi8(656)
 1587 0228 0E94 0000 		call __udivmodhi4
 1588               	.LVL48:
 1589               	.LSM226:
 1590 022c 8091 0000 		lds r24,lastIteration2.2154
 1591 0230 9091 0000 		lds r25,lastIteration2.2154+1
 1592 0234 6817      		cp r22,r24
 1593 0236 7907      		cpc r23,r25
 1594 0238 01F4      		brne .+2
 1595 023a 00C0      		rjmp .L169
 1596               	.LSM227:
 1597 023c 7093 0000 		sts lastIteration2.2154+1,r23
 1598 0240 6093 0000 		sts lastIteration2.2154,r22
 1599               	.LSM228:
 1600 0244 8091 0000 		lds r24,Status1
 1601 0248 80FF      		sbrs r24,0
 1602 024a 00C0      		rjmp .L170
 1603               	.LSM229:
 1604 024c 8091 0000 		lds r24,R+4
 1605 0250 0E94 0000 		call ad7991_poll
 1606               	.LVL49:
 1607               	.L170:
 1608               	.LSM230:
 1609 0254 0E94 0000 		call PA_bias
 1610               	.LSM231:
 1611 0258 8091 0000 		lds r24,Status1
 1612 025c 80FF      		sbrs r24,0
 1613 025e 00C0      		rjmp .L171
 1614               	.LSM232:
 1615 0260 0E94 0000 		call Test_SWR
 1616               	.L171:
 1617               	.LSM233:
 1618 0264 8091 0000 		lds r24,Status2
 1619 0268 81FF      		sbrs r24,1
 1620 026a 00C0      		rjmp .L169
 1621               	.LSM234:
 1622 026c E091 0000 		lds r30,R+69
 1623 0270 F0E0      		ldi r31,lo8(0)
 1624 0272 EE0F      		lsl r30
 1625 0274 FF1F      		rol r31
 1626 0276 EE0F      		lsl r30
 1627 0278 FF1F      		rol r31
 1628 027a E050      		subi r30,lo8(-(R))
 1629 027c F040      		sbci r31,hi8(-(R))
 1630 027e 8091 0000 		lds r24,R+29
 1631 0282 9091 0000 		lds r25,R+29+1
 1632 0286 A091 0000 		lds r26,R+29+2
 1633 028a B091 0000 		lds r27,R+29+3
 1634 028e 858F      		std Z+29,r24
 1635 0290 968F      		std Z+30,r25
 1636 0292 A78F      		std Z+31,r26
 1637 0294 B0A3      		std Z+32,r27
 1638               	.LSM235:
 1639 0296 6091 0000 		lds r22,R+29
 1640 029a 7091 0000 		lds r23,R+29+1
 1641 029e 8091 0000 		lds r24,R+29+2
 1642 02a2 9091 0000 		lds r25,R+29+3
 1643 02a6 0E94 0000 		call SetFreq
 1644               	.LSM236:
 1645 02aa 8091 0000 		lds r24,Status2
 1646 02ae 8D7F      		andi r24,lo8(-3)
 1647 02b0 8093 0000 		sts Status2,r24
 1648               	.LSM237:
 1649 02b4 1092 0000 		sts pushcount.2158,__zero_reg__
 1650               	.LSM238:
 1651 02b8 0E94 0000 		call lcd_display_freq_and_filters
 1652               	.L169:
 1653               	.LSM239:
 1654               	/* #APP */
 1655               	 ;  1735 "Mobo.c" 1
 1656 02bc A895      		wdr
 1657               	 ;  0 "" 2
 1658               	/* epilogue start */
 1659               	.LSM240:
 1660               	/* #NOAPP */
 1661 02be 0895      		ret
 1662               	.L152:
 1663               	.L172:
 1664 02c0 00C0      		rjmp .L172
 1665               	.LFE9:
 1667               		.section	.text.main,"ax",@progbits
 1668               	.global	main
 1670               	main:
 1671               	.LFB10:
 1672               	.LSM241:
 1673               	/* prologue: function */
 1674               	/* frame size = 0 */
 1675               	/* stack size = 0 */
 1676               	.L__stack_usage = 0
 1677               	.LSM242:
 1678 0000 84B7      		in r24,84-32
 1679 0002 877F      		andi r24,lo8(-9)
 1680 0004 84BF      		out 84-32,r24
 1681               	.LSM243:
 1682 0006 88E1      		ldi r24,lo8(24)
 1683               	/* #APP */
 1684               	 ;  1750 "Mobo.c" 1
 1685 0008 0FB6      		in __tmp_reg__, __SREG__
 1686 000a F894      		cli
 1687 000c 8093 6000 		sts 96, r24
 1688 0010 1092 6000 		sts 96, __zero_reg__
 1689 0014 0FBE      		out __SREG__,__tmp_reg__
 1690               		
 1691               	 ;  0 "" 2
 1692               	.LVL50:
 1693               	/* #NOAPP */
 1694               	.LBB12:
 1695               	.LBB13:
 1696               	.LSM244:
 1697 0016 90E0      		ldi r25,lo8(0)
 1698 0018 80E8      		ldi r24,lo8(-128)
 1699               	/* #APP */
 1700               	 ;  2153 "c:\program files (x86)\atmel\avr studio 5.0\avr toolchain\bin\../lib/gcc/avr/4.5.1/../../
 1701 001a 0FB6      		in __tmp_reg__,__SREG__
 1702 001c F894      		cli
 1703 001e 8093 6100 		sts 97, r24
 1704 0022 9093 6100 		sts 97, r25
 1705 0026 0FBE      		out __SREG__, __tmp_reg__
 1706               	 ;  0 "" 2
 1707               	/* #NOAPP */
 1708               	.LBE13:
 1709               	.LBE12:
 1710               	.LSM245:
 1711 0028 1092 8000 		sts 128,__zero_reg__
 1712               	.LSM246:
 1713 002c 84E0      		ldi r24,lo8(4)
 1714 002e 8093 8100 		sts 129,r24
 1715               	.LSM247:
 1716 0032 8CE0      		ldi r24,lo8(12)
 1717 0034 84B9      		out 36-32,r24
 1718               	.LSM248:
 1719 0036 83E0      		ldi r24,lo8(3)
 1720 0038 85B9      		out 37-32,r24
 1721               	.LSM249:
 1722 003a 8091 0000 		lds r24,Status2
 1723 003e 8068      		ori r24,lo8(-128)
 1724 0040 8093 0000 		sts Status2,r24
 1725               	.LSM250:
 1726 0044 80E0      		ldi r24,lo8(E)
 1727 0046 90E0      		ldi r25,hi8(E)
 1728 0048 0E94 0000 		call __eerd_byte_usb162
 1729 004c 9091 0000 		lds r25,R
 1730 0050 8917      		cp r24,r25
 1731 0052 01F0      		breq .L176
 1732               	.LSM251:
 1733 0054 8AE4      		ldi r24,lo8(74)
 1734 0056 0E94 0000 		call pcf8574_read
 1735 005a 8F3F      		cpi r24,lo8(-1)
 1736 005c 01F0      		breq .L177
 1737               	.LSM252:
 1738 005e 8AE4      		ldi r24,lo8(74)
 1739 0060 8093 0000 		sts R+2,r24
 1740               	.L177:
 1741               	.LSM253:
 1742 0064 80E0      		ldi r24,lo8(R)
 1743 0066 90E0      		ldi r25,hi8(R)
 1744 0068 60E0      		ldi r22,lo8(E)
 1745 006a 70E0      		ldi r23,hi8(E)
 1746 006c 4FE6      		ldi r20,lo8(111)
 1747 006e 50E0      		ldi r21,hi8(111)
 1748 0070 0E94 0000 		call __eewr_block_usb162
 1749 0074 00C0      		rjmp .L178
 1750               	.L176:
 1751               	.LSM254:
 1752 0076 80E0      		ldi r24,lo8(R)
 1753 0078 90E0      		ldi r25,hi8(R)
 1754 007a 60E0      		ldi r22,lo8(E)
 1755 007c 70E0      		ldi r23,hi8(E)
 1756 007e 4FE6      		ldi r20,lo8(111)
 1757 0080 50E0      		ldi r21,hi8(111)
 1758 0082 0E94 0000 		call __eerd_block_usb162
 1759               	.L178:
 1760               	.LSM255:
 1761 0086 E091 0000 		lds r30,R+69
 1762 008a F0E0      		ldi r31,lo8(0)
 1763 008c EE0F      		lsl r30
 1764 008e FF1F      		rol r31
 1765 0090 EE0F      		lsl r30
 1766 0092 FF1F      		rol r31
 1767 0094 E050      		subi r30,lo8(-(R))
 1768 0096 F040      		sbci r31,hi8(-(R))
 1769 0098 858D      		ldd r24,Z+29
 1770 009a 968D      		ldd r25,Z+30
 1771 009c A78D      		ldd r26,Z+31
 1772 009e B0A1      		ldd r27,Z+32
 1773 00a0 8093 0000 		sts R+29,r24
 1774 00a4 9093 0000 		sts R+29+1,r25
 1775 00a8 A093 0000 		sts R+29+2,r26
 1776 00ac B093 0000 		sts R+29+3,r27
 1777               	.LSM256:
 1778 00b0 8091 0000 		lds r24,Status2
 1779 00b4 8160      		ori r24,lo8(1)
 1780 00b6 8093 0000 		sts Status2,r24
 1781               	.LSM257:
 1782 00ba 0E94 0000 		call DeviceInit
 1783               	.LSM258:
 1784 00be 8CE0      		ldi r24,lo8(12)
 1785 00c0 0E94 0000 		call lcd_init
 1786               	.LSM259:
 1787 00c4 80E0      		ldi r24,lo8(gs(lcd_data))
 1788 00c6 90E0      		ldi r25,hi8(gs(lcd_data))
 1789 00c8 0E94 0000 		call rprintfInit
 1790               	.LSM260:
 1791 00cc 0E94 0000 		call lcd_bargraph_init
 1792               	.LSM261:
 1793 00d0 2CE0      		ldi r18,lo8(12)
 1794 00d2 88E1      		ldi r24,lo8(24)
 1795 00d4 90E0      		ldi r25,hi8(24)
 1796               	/* #APP */
 1797               	 ;  1842 "Mobo.c" 1
 1798 00d6 0FB6      		in __tmp_reg__,__SREG__
 1799 00d8 F894      		cli
 1800 00da A895      		wdr
 1801 00dc 8093 6000 		sts 96,r24
 1802 00e0 0FBE      		out __SREG__,__tmp_reg__
 1803 00e2 2093 6000 		sts 96,r18
 1804               		
 1805               	 ;  0 "" 2
 1806               	.LSM262:
 1807               	/* #NOAPP */
 1808 00e6 0E94 0000 		call shaftEncoderInit
 1809               	.LSM263:
 1810 00ea 0E94 0000 		call Initialize_USB
 1811               	.LSM264:
 1812 00ee 80E0      		ldi r24,lo8(0)
 1813 00f0 90E0      		ldi r25,hi8(0)
 1814               	/* epilogue start */
 1815 00f2 0895      		ret
 1816               	.LFE10:
 1818               	.global	R
 1819               		.data
 1822               	R:
 1823 0000 02        		.byte	2
 1824 0001 55        		.byte	85
 1825 0002 4E        		.byte	78
 1826 0003 0D        		.byte	13
 1827 0004 28        		.byte	40
 1828 0005 3F        		.byte	63
 1829 0006 39        		.byte	57
 1830 0007 3A        		.byte	58
 1831 0008 38        		.byte	56
 1832 0009 37        		.byte	55
 1833 000a 3100      		.word	49
 1834 000c C800      		.word	200
 1835 000e 1E00      		.word	30
 1836 0010 E803      		.word	1000
 1837 0012 01        		.byte	1
 1838 0013 02        		.byte	2
 1839 0014 23        		.byte	35
 1840 0015 00        		.byte	0
 1841 0016 00        		.byte	0
 1842 0017 C2        		.byte	-62
 1843 0018 F5        		.byte	-11
 1844 0019 48        		.byte	72
 1845 001a 72        		.byte	114
 1846 001b AC0D      		.word	3500
 1847 001d 68        		.byte	104
 1848 001e 66        		.byte	102
 1849 001f 86        		.byte	-122
 1850 0020 03        		.byte	3
 1851 0021 C3        		.byte	-61
 1852 0022 F5        		.byte	-11
 1853 0023 E8        		.byte	-24
 1854 0024 00        		.byte	0
 1855 0025 5C        		.byte	92
 1856 0026 8F        		.byte	-113
 1857 0027 C2        		.byte	-62
 1858 0028 01        		.byte	1
 1859 0029 5C        		.byte	92
 1860 002a 8F        		.byte	-113
 1861 002b 82        		.byte	-126
 1862 002c 03        		.byte	3
 1863 002d 28        		.byte	40
 1864 002e 5C        		.byte	92
 1865 002f 0F        		.byte	15
 1866 0030 05        		.byte	5
 1867 0031 60        		.byte	96
 1868 0032 8F        		.byte	-113
 1869 0033 02        		.byte	2
 1870 0034 07        		.byte	7
 1871 0035 20        		.byte	32
 1872 0036 85        		.byte	-123
 1873 0037 0B        		.byte	11
 1874 0038 09        		.byte	9
 1875 0039 60        		.byte	96
 1876 003a 8F        		.byte	-113
 1877 003b 82        		.byte	-126
 1878 003c 0A        		.byte	10
 1879 003d E0        		.byte	-32
 1880 003e 7A        		.byte	122
 1881 003f 74        		.byte	116
 1882 0040 0C        		.byte	12
 1883 0041 60        		.byte	96
 1884 0042 8F        		.byte	-113
 1885 0043 02        		.byte	2
 1886 0044 0E        		.byte	14
 1887 0045 03        		.byte	3
 1888 0046 0001      		.word	256
 1889 0048 0003      		.word	768
 1890 004a 0004      		.word	1024
 1891 004c 0006      		.word	1536
 1892 004e 0008      		.word	2048
 1893 0050 000A      		.word	2560
 1894 0052 000C      		.word	3072
 1895 0054 0100      		.word	1
 1896 0056 0001      		.word	256
 1897 0058 0002      		.word	512
 1898 005a 0004      		.word	1024
 1899 005c 8005      		.word	1408
 1900 005e 4007      		.word	1856
 1901 0060 1909      		.word	2329
 1902 0062 800A      		.word	2688
 1903 0064 0100      		.word	1
 1904 0066 04        		.byte	4
 1905 0067 04        		.byte	4
 1906 0068 0A        		.byte	10
 1907 0069 0004      		.word	1024
 1908 006b 00        		.byte	0
 1909 006c 2D        		.byte	45
 1910 006d 28        		.byte	40
 1911 006e 01        		.byte	1
 1912               	.global	Status1
 1913               	.global	Status1
 1914               		.section .bss
 1917               	Status1:
 1918 0000 00        		.skip 1,0
 1919               	.global	Status2
 1920               	.global	Status2
 1923               	Status2:
 1924 0001 00        		.skip 1,0
 1925               	.global	biasInit
 1926               	.global	biasInit
 1929               	biasInit:
 1930 0002 00        		.skip 1,0
 1931               	.global	pcf_data_out
 1932               		.data
 1935               	pcf_data_out:
 1936 006f FF        		.byte	-1
 1937               	.global	E
 1938               		.section	.eeprom,"aw",@progbits
 1941               	E:
 1942 0000 0000 0000 		.skip 111,0
 1942      0000 0000 
 1942      0000 0000 
 1942      0000 0000 
 1942      0000 0000 
 1943               		.comm replyBuf,32,1
 1944               		.comm tmp100_data,2,1
 1945               		.comm ad7991_adc,8,1
 1946               		.comm measured_SWR,2,1
 1947               		.comm selectedFilters,2,1
 1948               		.comm I2CErrors,1,1
 1949               		.comm usbMsgPtr,2,1
 1950               		.lcomm fast_patience.2165,1
 1951               		.lcomm a.2162,1
 1952               		.lcomm pushcount.2158,1
 1953               		.lcomm Timerval.2155,2
 1954               		.lcomm lastIteration2.2154,2
 1955               		.lcomm lastIteration1.2153,2
 2004               	.Letext0:
DEFINED SYMBOLS
                            *ABS*:00000000 Mobo.c
C:\Users\Alex\AppData\Local\Temp\cc7ZAVrb.s:2      *ABS*:0000003f __SREG__
C:\Users\Alex\AppData\Local\Temp\cc7ZAVrb.s:3      *ABS*:0000003e __SP_H__
C:\Users\Alex\AppData\Local\Temp\cc7ZAVrb.s:4      *ABS*:0000003d __SP_L__
C:\Users\Alex\AppData\Local\Temp\cc7ZAVrb.s:5      *ABS*:00000034 __CCP__
C:\Users\Alex\AppData\Local\Temp\cc7ZAVrb.s:6      *ABS*:00000000 __tmp_reg__
C:\Users\Alex\AppData\Local\Temp\cc7ZAVrb.s:7      *ABS*:00000001 __zero_reg__
C:\Users\Alex\AppData\Local\Temp\cc7ZAVrb.s:19     .text.usbFunctionWrite:00000000 usbFunctionWrite
C:\Users\Alex\AppData\Local\Temp\cc7ZAVrb.s:124    .text.usbFunctionWrite:0000008c L_A_102
C:\Users\Alex\AppData\Local\Temp\cc7ZAVrb.s:130    .text.usbFunctionWrite:00000096 L_B_102
C:\Users\Alex\AppData\Local\Temp\cc7ZAVrb.s:171    .text.usbFunctionWrite:000000ce L_A_135
C:\Users\Alex\AppData\Local\Temp\cc7ZAVrb.s:186    .text.usbFunctionWrite:000000ea L_B_135
C:\Users\Alex\AppData\Local\Temp\cc7ZAVrb.s:188    .text.usbFunctionWrite:000000ec L_C_135
C:\Users\Alex\AppData\Local\Temp\cc7ZAVrb.s:191    .text.usbFunctionWrite:000000f0 L_X_135
C:\Users\Alex\AppData\Local\Temp\cc7ZAVrb.s:1822   .data:00000000 R
C:\Users\Alex\AppData\Local\Temp\cc7ZAVrb.s:1923   .bss:00000001 Status2
C:\Users\Alex\AppData\Local\Temp\cc7ZAVrb.s:1941   .eeprom:00000000 E
C:\Users\Alex\AppData\Local\Temp\cc7ZAVrb.s:346    .text.usbFunctionSetup:00000000 usbFunctionSetup
                            *COM*:00000020 replyBuf
                            *COM*:00000002 usbMsgPtr
C:\Users\Alex\AppData\Local\Temp\cc7ZAVrb.s:1917   .bss:00000000 Status1
C:\Users\Alex\AppData\Local\Temp\cc7ZAVrb.s:1929   .bss:00000002 biasInit
                            *COM*:00000008 ad7991_adc
                            *COM*:00000002 tmp100_data
C:\Users\Alex\AppData\Local\Temp\cc7ZAVrb.s:1291   .text.maintask:00000000 maintask
C:\Users\Alex\AppData\Local\Temp\cc7ZAVrb.s:1952   .bss:00000006 Timerval.2155
C:\Users\Alex\AppData\Local\Temp\cc7ZAVrb.s:1950   .bss:00000004 a.2162
C:\Users\Alex\AppData\Local\Temp\cc7ZAVrb.s:1954   .bss:0000000a lastIteration1.2153
                             .bss:00000003 fast_patience.2165
C:\Users\Alex\AppData\Local\Temp\cc7ZAVrb.s:1951   .bss:00000005 pushcount.2158
C:\Users\Alex\AppData\Local\Temp\cc7ZAVrb.s:1953   .bss:00000008 lastIteration2.2154
C:\Users\Alex\AppData\Local\Temp\cc7ZAVrb.s:1670   .text.main:00000000 main
C:\Users\Alex\AppData\Local\Temp\cc7ZAVrb.s:1935   .data:0000006f pcf_data_out
                            *COM*:00000002 measured_SWR
                            *COM*:00000002 selectedFilters
                            *COM*:00000001 I2CErrors

UNDEFINED SYMBOLS
__mulhi3
__eewr_block_usb162
__eerd_block_usb162
GetRegFromSi570
MoboPCF_set
MoboPCF_clear
pcf8574_byte
pcf8574_read
encoder_scan
tmp100
ad7991_poll
lcd_display_P_SWR_V_C_T
__udivmodhi4
lcd_display_Memory_Stored
lcd_display_TRX_status_on_change
PA_bias
Test_SWR
SetFreq
lcd_display_freq_and_filters
__eerd_byte_usb162
DeviceInit
lcd_init
lcd_data
rprintfInit
lcd_bargraph_init
shaftEncoderInit
Initialize_USB
__do_copy_data
__do_clear_bss
