   1               		.file	"Mobo_ShaftEncoder.c"
   2               	__SREG__ = 0x3f
   3               	__SP_H__ = 0x3e
   4               	__SP_L__ = 0x3d
   5               	__CCP__ = 0x34
   6               	__tmp_reg__ = 0
   7               	__zero_reg__ = 1
  15               	.Ltext0:
  16               		.section	.text.shaftEncoderInit,"ax",@progbits
  17               	.global	shaftEncoderInit
  19               	shaftEncoderInit:
  20               	.LFB6:
  21               	.LSM0:
  22               	/* prologue: function */
  23               	/* frame size = 0 */
  24               	/* stack size = 0 */
  25               	.L__stack_usage = 0
  26               	.LSM1:
  27 0000 5698      		cbi 42-32,6
  28               	.LSM2:
  29 0002 5E9A      		sbi 43-32,6
  30               	.LSM3:
  31 0004 5598      		cbi 42-32,5
  32               	.LSM4:
  33 0006 5D9A      		sbi 43-32,5
  34               	/* epilogue start */
  35               	.LSM5:
  36 0008 0895      		ret
  37               	.LFE6:
  39               		.section	.text.encoder_scan,"ax",@progbits
  40               	.global	encoder_scan
  42               	encoder_scan:
  43               	.LFB7:
  44               	.LSM6:
  45 0000 CF92      		push r12
  46 0002 DF92      		push r13
  47 0004 EF92      		push r14
  48 0006 FF92      		push r15
  49 0008 0F93      		push r16
  50 000a 1F93      		push r17
  51 000c CF93      		push r28
  52 000e DF93      		push r29
  53               	/* prologue: function */
  54               	/* frame size = 0 */
  55               	/* stack size = 8 */
  56               	.L__stack_usage = 8
  57               	.LVL0:
  58               	.LSM7:
  59 0010 C091 0000 		lds r28,R+105
  60 0014 D091 0000 		lds r29,R+105+1
  61               	.LVL1:
  62               	.LSM8:
  63 0018 91E0      		ldi r25,lo8(1)
  64 001a 4E9B      		sbis 41-32,6
  65 001c 90E0      		ldi r25,lo8(0)
  66               	.L3:
  67               	.LVL2:
  68 001e 81E0      		ldi r24,lo8(1)
  69 0020 4D9B      		sbis 41-32,5
  70 0022 80E0      		ldi r24,lo8(0)
  71               	.L4:
  72               	.LVL3:
  73               	.LSM9:
  74 0024 3091 0000 		lds r19,old_pha.2035
  75 0028 2091 0000 		lds r18,old_phb.2036
  76 002c 9317      		cp r25,r19
  77 002e 01F0      		breq .L5
  78               	.LSM10:
  79 0030 8217      		cp r24,r18
  80 0032 01F4      		brne .L19
  81               	.LSM11:
  82 0034 9093 0000 		sts old_pha.2035,r25
  83               	.LSM12:
  84 0038 9817      		cp r25,r24
  85 003a 01F4      		brne .L20
  86 003c 00C0      		rjmp .L22
  87               	.L5:
  88               	.LSM13:
  89 003e 8217      		cp r24,r18
  90 0040 01F0      		breq .L19
  91               	.LSM14:
  92 0042 8093 0000 		sts old_phb.2036,r24
  93               	.LSM15:
  94 0046 9817      		cp r25,r24
  95 0048 01F0      		breq .L20
  96               	.L22:
  97               	.LSM16:
  98 004a 1FEF      		ldi r17,lo8(-1)
  99 004c 00C0      		rjmp .L8
 100               	.L20:
 101               	.LSM17:
 102 004e 11E0      		ldi r17,lo8(1)
 103               	.L8:
 104               	.LVL4:
 105               	.LSM18:
 106 0050 8091 0000 		lds r24,Status2
 107               	.LVL5:
 108 0054 8A60      		ori r24,lo8(10)
 109 0056 8093 0000 		sts Status2,r24
 110 005a 00C0      		rjmp .L6
 111               	.LVL6:
 112               	.L19:
 113               	.LSM19:
 114 005c 10E0      		ldi r17,lo8(0)
 115               	.LVL7:
 116               	.L6:
 117               	.LSM20:
 118 005e 8091 0000 		lds r24,Status2
 119 0062 83FF      		sbrs r24,3
 120 0064 00C0      		rjmp .L2
 121               	.LSM21:
 122 0066 877F      		andi r24,lo8(-9)
 123 0068 8093 0000 		sts Status2,r24
 124               	.LSM22:
 125 006c E090 8400 		lds r14,132
 126 0070 F090 8500 		lds r15,132+1
 127               	.LVL8:
 128               	.LSM23:
 129 0074 C090 0000 		lds r12,enc_last.2041
 130 0078 D090 0000 		lds r13,enc_last.2041+1
 131 007c EC14      		cp r14,r12
 132 007e FD04      		cpc r15,r13
 133 0080 00F0      		brlo .L10
 134               	.LSM24:
 135 0082 9E01      		movw r18,r28
 136 0084 40E0      		ldi r20,lo8(0)
 137 0086 50E0      		ldi r21,hi8(0)
 138 0088 60E0      		ldi r22,lo8(96000)
 139 008a 77E7      		ldi r23,hi8(96000)
 140 008c 81E0      		ldi r24,hlo8(96000)
 141 008e 90E0      		ldi r25,hhi8(96000)
 142 0090 0E94 0000 		call __divmodsi4
 143               	.LSM25:
 144 0094 C701      		movw r24,r14
 145 0096 8C19      		sub r24,r12
 146 0098 9D09      		sbc r25,r13
 147 009a 2817      		cp r18,r24
 148 009c 3907      		cpc r19,r25
 149 009e 00F0      		brlo .L11
 150               	.LSM26:
 151 00a0 8091 0000 		lds r24,fast_counter.2042
 152 00a4 8F5F      		subi r24,lo8(-(1))
 153 00a6 8093 0000 		sts fast_counter.2042,r24
 154 00aa 00C0      		rjmp .L10
 155               	.L11:
 156               	.LSM27:
 157 00ac 1092 0000 		sts fast_counter.2042,__zero_reg__
 158               	.L10:
 159               	.LSM28:
 160 00b0 F092 0000 		sts enc_last.2041+1,r15
 161 00b4 E092 0000 		sts enc_last.2041,r14
 162               	.LSM29:
 163 00b8 2091 0000 		lds r18,fast_counter.2042
 164 00bc 30E0      		ldi r19,lo8(0)
 165               	.LSM30:
 166 00be CE01      		movw r24,r28
 167 00c0 65E0      		ldi r22,lo8(5)
 168 00c2 70E0      		ldi r23,hi8(5)
 169 00c4 0E94 0000 		call __udivmodhi4
 170               	.LSM31:
 171 00c8 6217      		cp r22,r18
 172 00ca 7307      		cpc r23,r19
 173 00cc 00F4      		brsh .L12
 174               	.LSM32:
 175 00ce 8091 0000 		lds r24,Status2
 176 00d2 8061      		ori r24,lo8(16)
 177 00d4 8093 0000 		sts Status2,r24
 178               	.L12:
 179               	.LSM33:
 180 00d8 9091 0000 		lds r25,direction.2043
 181               	.LVL9:
 182 00dc 8091 0000 		lds r24,Status2
 183 00e0 9117      		cp r25,r17
 184 00e2 01F0      		breq .L13
 185               	.LSM34:
 186 00e4 85FF      		sbrs r24,5
 187 00e6 00C0      		rjmp .L14
 188               	.LSM35:
 189 00e8 8F7D      		andi r24,lo8(-33)
 190 00ea 00C0      		rjmp .L21
 191               	.L14:
 192               	.LSM36:
 193 00ec 8062      		ori r24,lo8(32)
 194 00ee 00C0      		rjmp .L21
 195               	.L13:
 196               	.LSM37:
 197 00f0 85FF      		sbrs r24,5
 198 00f2 00C0      		rjmp .L15
 199               	.LSM38:
 200 00f4 8F7C      		andi r24,lo8(-49)
 201               	.L21:
 202 00f6 8093 0000 		sts Status2,r24
 203               	.L15:
 204               	.LSM39:
 205 00fa 1093 0000 		sts direction.2043,r17
 206               	.LSM40:
 207 00fe 8091 0000 		lds r24,Status2
 208 0102 84FF      		sbrs r24,4
 209 0104 00C0      		rjmp .L16
 210               	.LSM41:
 211 0106 812F      		mov r24,r17
 212 0108 64E6      		ldi r22,lo8(100)
 213 010a 0E94 0000 		call __mulqi3
 214 010e 182F      		mov r17,r24
 215               	.LVL10:
 216               	.L16:
 217               	.LSM42:
 218 0110 E12E      		mov r14,r17
 219 0112 FF24      		clr r15
 220 0114 E7FC      		sbrc r14,7
 221 0116 F094      		com r15
 222 0118 0F2D      		mov r16,r15
 223 011a 1F2D      		mov r17,r15
 224               	.LVL11:
 225               	.LSM43:
 226 011c 84EC      		ldi r24,lo8(8388)
 227 011e 90E2      		ldi r25,hi8(8388)
 228 0120 BE01      		movw r22,r28
 229 0122 0E94 0000 		call __udivmodhi4
 230               	.LSM44:
 231 0126 9B01      		movw r18,r22
 232 0128 40E0      		ldi r20,lo8(0)
 233 012a 50E0      		ldi r21,hi8(0)
 234 012c C801      		movw r24,r16
 235 012e B701      		movw r22,r14
 236 0130 0E94 0000 		call __mulsi3
 237               	.LVL12:
 238 0134 2091 0000 		lds r18,R+29
 239 0138 3091 0000 		lds r19,R+29+1
 240 013c 4091 0000 		lds r20,R+29+2
 241 0140 5091 0000 		lds r21,R+29+3
 242 0144 620F      		add r22,r18
 243 0146 731F      		adc r23,r19
 244 0148 841F      		adc r24,r20
 245 014a 951F      		adc r25,r21
 246 014c 6093 0000 		sts R+29,r22
 247 0150 7093 0000 		sts R+29+1,r23
 248 0154 8093 0000 		sts R+29+2,r24
 249 0158 9093 0000 		sts R+29+3,r25
 250               	.L2:
 251               	/* epilogue start */
 252               	.LSM45:
 253 015c DF91      		pop r29
 254 015e CF91      		pop r28
 255               	.LVL13:
 256 0160 1F91      		pop r17
 257               	.LVL14:
 258 0162 0F91      		pop r16
 259 0164 FF90      		pop r15
 260 0166 EF90      		pop r14
 261 0168 DF90      		pop r13
 262 016a CF90      		pop r12
 263 016c 0895      		ret
 264               	.LFE7:
 266               		.lcomm direction.2043,1
 267               		.lcomm fast_counter.2042,1
 268               		.lcomm enc_last.2041,2
 269               		.lcomm old_phb.2036,1
 270               		.lcomm old_pha.2035,1
 303               	.Letext0:
DEFINED SYMBOLS
                            *ABS*:00000000 Mobo_ShaftEncoder.c
C:\Users\Alex\AppData\Local\Temp\ccm0pvm7.s:2      *ABS*:0000003f __SREG__
C:\Users\Alex\AppData\Local\Temp\ccm0pvm7.s:3      *ABS*:0000003e __SP_H__
C:\Users\Alex\AppData\Local\Temp\ccm0pvm7.s:4      *ABS*:0000003d __SP_L__
C:\Users\Alex\AppData\Local\Temp\ccm0pvm7.s:5      *ABS*:00000034 __CCP__
C:\Users\Alex\AppData\Local\Temp\ccm0pvm7.s:6      *ABS*:00000000 __tmp_reg__
C:\Users\Alex\AppData\Local\Temp\ccm0pvm7.s:7      *ABS*:00000001 __zero_reg__
C:\Users\Alex\AppData\Local\Temp\ccm0pvm7.s:19     .text.shaftEncoderInit:00000000 shaftEncoderInit
C:\Users\Alex\AppData\Local\Temp\ccm0pvm7.s:42     .text.encoder_scan:00000000 encoder_scan
C:\Users\Alex\AppData\Local\Temp\ccm0pvm7.s:269    .bss:00000005 old_pha.2035
C:\Users\Alex\AppData\Local\Temp\ccm0pvm7.s:268    .bss:00000004 old_phb.2036
C:\Users\Alex\AppData\Local\Temp\ccm0pvm7.s:267    .bss:00000002 enc_last.2041
C:\Users\Alex\AppData\Local\Temp\ccm0pvm7.s:266    .bss:00000001 fast_counter.2042
                             .bss:00000000 direction.2043

UNDEFINED SYMBOLS
R
Status2
__divmodsi4
__udivmodhi4
__mulqi3
__mulsi3
__do_clear_bss
