   1               		.file	"rprintf.c"
   2               	__SREG__ = 0x3f
   3               	__SP_H__ = 0x3e
   4               	__SP_L__ = 0x3d
   5               	__CCP__ = 0x34
   6               	__tmp_reg__ = 0
   7               	__zero_reg__ = 1
  15               	.Ltext0:
  16               		.section	.text.rprintfInit,"ax",@progbits
  17               	.global	rprintfInit
  19               	rprintfInit:
  20               	.LFB0:
  21               	.LSM0:
  22               	.LVL0:
  23               	/* prologue: function */
  24               	/* frame size = 0 */
  25               	/* stack size = 0 */
  26               	.L__stack_usage = 0
  27               	.LSM1:
  28 0000 9093 0000 		sts rputchar+1,r25
  29 0004 8093 0000 		sts rputchar,r24
  30               	/* epilogue start */
  31               	.LSM2:
  32 0008 0895      		ret
  33               	.LFE0:
  35               		.section	.text.rprintfChar,"ax",@progbits
  36               	.global	rprintfChar
  38               	rprintfChar:
  39               	.LFB1:
  40               	.LSM3:
  41               	.LVL1:
  42 0000 1F93      		push r17
  43               	/* prologue: function */
  44               	/* frame size = 0 */
  45               	/* stack size = 1 */
  46               	.L__stack_usage = 1
  47 0002 182F      		mov r17,r24
  48               	.LSM4:
  49 0004 8A30      		cpi r24,lo8(10)
  50 0006 01F4      		brne .L3
  51               	.LVL2:
  52               	.LSM5:
  53 0008 E091 0000 		lds r30,rputchar
  54 000c F091 0000 		lds r31,rputchar+1
  55 0010 8DE0      		ldi r24,lo8(13)
  56 0012 0995      		icall
  57               	.L3:
  58               	.LSM6:
  59 0014 E091 0000 		lds r30,rputchar
  60 0018 F091 0000 		lds r31,rputchar+1
  61 001c 812F      		mov r24,r17
  62 001e 0995      		icall
  63               	/* epilogue start */
  64               	.LSM7:
  65 0020 1F91      		pop r17
  66               	.LVL3:
  67 0022 0895      		ret
  68               	.LFE1:
  70               		.section	.text.rprintfStr,"ax",@progbits
  71               	.global	rprintfStr
  73               	rprintfStr:
  74               	.LFB2:
  75               	.LSM8:
  76               	.LVL4:
  77 0000 CF93      		push r28
  78 0002 DF93      		push r29
  79               	/* prologue: function */
  80               	/* frame size = 0 */
  81               	/* stack size = 2 */
  82               	.L__stack_usage = 2
  83               	.LSM9:
  84 0004 0097      		sbiw r24,0
  85 0006 01F0      		breq .L4
  86 0008 EC01      		movw r28,r24
  87 000a 00C0      		rjmp .L6
  88               	.LVL5:
  89               	.L7:
  90               	.LSM10:
  91 000c 0E94 0000 		call rprintfChar
  92               	.L6:
  93               	.LSM11:
  94 0010 8991      		ld r24,Y+
  95 0012 8823      		tst r24
  96 0014 01F4      		brne .L7
  97               	.L4:
  98               	/* epilogue start */
  99               	.LSM12:
 100 0016 DF91      		pop r29
 101 0018 CF91      		pop r28
 102 001a 0895      		ret
 103               	.LFE2:
 105               		.section	.text.rprintfStrLen,"ax",@progbits
 106               	.global	rprintfStrLen
 108               	rprintfStrLen:
 109               	.LFB3:
 110               	.LSM13:
 111               	.LVL6:
 112 0000 EF92      		push r14
 113 0002 FF92      		push r15
 114 0004 0F93      		push r16
 115 0006 1F93      		push r17
 116 0008 CF93      		push r28
 117 000a DF93      		push r29
 118               	/* prologue: function */
 119               	/* frame size = 0 */
 120               	/* stack size = 6 */
 121               	.L__stack_usage = 6
 122 000c 7A01      		movw r14,r20
 123               	.LVL7:
 124               	.LSM14:
 125 000e 0097      		sbiw r24,0
 126 0010 01F0      		breq .L8
 127               	.LVL8:
 128 0012 FC01      		movw r30,r24
 129 0014 80E0      		ldi r24,lo8(0)
 130 0016 90E0      		ldi r25,hi8(0)
 131               	.LVL9:
 132               	.L12:
 133               	.LSM15:
 134 0018 EF01      		movw r28,r30
 135               	.LSM16:
 136 001a 8617      		cp r24,r22
 137 001c 9707      		cpc r25,r23
 138 001e 00F0      		brlo .L10
 139               	.LVL10:
 140               	.L13:
 141               	.LSM17:
 142 0020 00E0      		ldi r16,lo8(0)
 143 0022 10E0      		ldi r17,hi8(0)
 144 0024 00C0      		rjmp .L11
 145               	.L10:
 146               	.LSM18:
 147 0026 2191      		ld r18,Z+
 148 0028 EF01      		movw r28,r30
 149               	.LVL11:
 150 002a 0196      		adiw r24,1
 151 002c 2223      		tst r18
 152 002e 01F4      		brne .L12
 153 0030 00C0      		rjmp .L13
 154               	.LVL12:
 155               	.L16:
 156               	.LSM19:
 157 0032 8881      		ld r24,Y
 158 0034 8823      		tst r24
 159 0036 01F0      		breq .L14
 160               	.LSM20:
 161 0038 2196      		adiw r28,1
 162               	.LVL13:
 163 003a 00C0      		rjmp .L18
 164               	.L14:
 165               	.LSM21:
 166 003c 80E2      		ldi r24,lo8(32)
 167               	.L18:
 168 003e 0E94 0000 		call rprintfChar
 169               	.LSM22:
 170 0042 0F5F      		subi r16,lo8(-(1))
 171 0044 1F4F      		sbci r17,hi8(-(1))
 172               	.LVL14:
 173               	.L11:
 174               	.LSM23:
 175 0046 0E15      		cp r16,r14
 176 0048 1F05      		cpc r17,r15
 177 004a 00F0      		brlo .L16
 178               	.LVL15:
 179               	.L8:
 180               	/* epilogue start */
 181               	.LSM24:
 182 004c DF91      		pop r29
 183 004e CF91      		pop r28
 184 0050 1F91      		pop r17
 185 0052 0F91      		pop r16
 186 0054 FF90      		pop r15
 187 0056 EF90      		pop r14
 188               	.LVL16:
 189 0058 0895      		ret
 190               	.LFE3:
 192               		.section	.text.rprintfProgStr,"ax",@progbits
 193               	.global	rprintfProgStr
 195               	rprintfProgStr:
 196               	.LFB4:
 197               	.LSM25:
 198               	.LVL17:
 199 0000 CF93      		push r28
 200 0002 DF93      		push r29
 201               	/* prologue: function */
 202               	/* frame size = 0 */
 203               	/* stack size = 2 */
 204               	.L__stack_usage = 2
 205 0004 EC01      		movw r28,r24
 206               	.LSM26:
 207 0006 0097      		sbiw r24,0
 208 0008 01F4      		brne .L23
 209 000a 00C0      		rjmp .L19
 210               	.LVL18:
 211               	.L22:
 212               	.LSM27:
 213 000c 0E94 0000 		call rprintfChar
 214               	.LVL19:
 215               	.L23:
 216               	.LSM28:
 217 0010 FE01      		movw r30,r28
 218               	.LVL20:
 219               	.LBB30:
 220               	.LSM29:
 221 0012 2196      		adiw r28,1
 222               	.LVL21:
 223               	/* #APP */
 224               	 ;  134 "avrlib/rprintf.c" 1
 225 0014 8491      		lpm r24, Z
 226               		
 227               	 ;  0 "" 2
 228               	.LVL22:
 229               	/* #NOAPP */
 230               	.LBE30:
 231 0016 8823      		tst r24
 232 0018 01F4      		brne .L22
 233               	.LVL23:
 234               	.L19:
 235               	/* epilogue start */
 236               	.LSM30:
 237 001a DF91      		pop r29
 238 001c CF91      		pop r28
 239               	.LVL24:
 240 001e 0895      		ret
 241               	.LFE4:
 243               		.section	.text.rprintfCRLF,"ax",@progbits
 244               	.global	rprintfCRLF
 246               	rprintfCRLF:
 247               	.LFB5:
 248               	.LSM31:
 249               	/* prologue: function */
 250               	/* frame size = 0 */
 251               	/* stack size = 0 */
 252               	.L__stack_usage = 0
 253               	.LSM32:
 254 0000 8AE0      		ldi r24,lo8(10)
 255 0002 0E94 0000 		call rprintfChar
 256               	/* epilogue start */
 257               	.LSM33:
 258 0006 0895      		ret
 259               	.LFE5:
 261               		.section	.text.rprintfu04,"ax",@progbits
 262               	.global	rprintfu04
 264               	rprintfu04:
 265               	.LFB6:
 266               	.LSM34:
 267               	.LVL25:
 268               	/* prologue: function */
 269               	/* frame size = 0 */
 270               	/* stack size = 0 */
 271               	.L__stack_usage = 0
 272               	.LBB31:
 273               	.LSM35:
 274 0000 E82F      		mov r30,r24
 275 0002 F0E0      		ldi r31,lo8(0)
 276 0004 EF70      		andi r30,lo8(15)
 277 0006 F070      		andi r31,hi8(15)
 278 0008 E050      		subi r30,lo8(-(HexChars))
 279 000a F040      		sbci r31,hi8(-(HexChars))
 280               	/* #APP */
 281               	 ;  158 "avrlib/rprintf.c" 1
 282 000c 8491      		lpm r24, Z
 283               		
 284               	 ;  0 "" 2
 285               	.LVL26:
 286               	/* #NOAPP */
 287               	.LBE31:
 288 000e 0E94 0000 		call rprintfChar
 289               	.LVL27:
 290               	/* epilogue start */
 291               	.LSM36:
 292 0012 0895      		ret
 293               	.LFE6:
 295               		.section	.text.rprintfu08,"ax",@progbits
 296               	.global	rprintfu08
 298               	rprintfu08:
 299               	.LFB7:
 300               	.LSM37:
 301               	.LVL28:
 302 0000 1F93      		push r17
 303               	/* prologue: function */
 304               	/* frame size = 0 */
 305               	/* stack size = 1 */
 306               	.L__stack_usage = 1
 307 0002 182F      		mov r17,r24
 308               	.LSM38:
 309 0004 8295      		swap r24
 310               	.LVL29:
 311 0006 8F70      		andi r24,lo8(15)
 312 0008 0E94 0000 		call rprintfu04
 313               	.LSM39:
 314 000c 812F      		mov r24,r17
 315 000e 0E94 0000 		call rprintfu04
 316               	/* epilogue start */
 317               	.LSM40:
 318 0012 1F91      		pop r17
 319               	.LVL30:
 320 0014 0895      		ret
 321               	.LFE7:
 323               		.section	.text.rprintfu16,"ax",@progbits
 324               	.global	rprintfu16
 326               	rprintfu16:
 327               	.LFB8:
 328               	.LSM41:
 329               	.LVL31:
 330 0000 1F93      		push r17
 331               	/* prologue: function */
 332               	/* frame size = 0 */
 333               	/* stack size = 1 */
 334               	.L__stack_usage = 1
 335 0002 182F      		mov r17,r24
 336               	.LSM42:
 337 0004 892F      		mov r24,r25
 338               	.LVL32:
 339 0006 0E94 0000 		call rprintfu08
 340               	.LSM43:
 341 000a 812F      		mov r24,r17
 342 000c 0E94 0000 		call rprintfu08
 343               	/* epilogue start */
 344               	.LSM44:
 345 0010 1F91      		pop r17
 346 0012 0895      		ret
 347               	.LFE8:
 349               		.section	.text.rprintfu32,"ax",@progbits
 350               	.global	rprintfu32
 352               	rprintfu32:
 353               	.LFB9:
 354               	.LSM45:
 355               	.LVL33:
 356 0000 EF92      		push r14
 357 0002 FF92      		push r15
 358 0004 0F93      		push r16
 359 0006 1F93      		push r17
 360               	/* prologue: function */
 361               	/* frame size = 0 */
 362               	/* stack size = 4 */
 363               	.L__stack_usage = 4
 364 0008 7B01      		movw r14,r22
 365 000a 8C01      		movw r16,r24
 366               	.LSM46:
 367 000c C801      		movw r24,r16
 368 000e 0E94 0000 		call rprintfu16
 369               	.LVL34:
 370               	.LSM47:
 371 0012 C701      		movw r24,r14
 372 0014 0E94 0000 		call rprintfu16
 373               	/* epilogue start */
 374               	.LSM48:
 375 0018 1F91      		pop r17
 376 001a 0F91      		pop r16
 377 001c FF90      		pop r15
 378 001e EF90      		pop r14
 379               	.LVL35:
 380 0020 0895      		ret
 381               	.LFE9:
 383               		.section	.text.rprintfNum,"ax",@progbits
 384               	.global	rprintfNum
 386               	rprintfNum:
 387               	.LFB10:
 388               	.LSM49:
 389               	.LVL36:
 390 0000 2F92      		push r2
 391 0002 3F92      		push r3
 392 0004 4F92      		push r4
 393 0006 5F92      		push r5
 394 0008 7F92      		push r7
 395 000a 8F92      		push r8
 396 000c 9F92      		push r9
 397 000e AF92      		push r10
 398 0010 BF92      		push r11
 399 0012 CF92      		push r12
 400 0014 DF92      		push r13
 401 0016 EF92      		push r14
 402 0018 FF92      		push r15
 403 001a 0F93      		push r16
 404 001c 1F93      		push r17
 405 001e DF93      		push r29
 406 0020 CF93      		push r28
 407 0022 CDB7      		in r28,__SP_L__
 408 0024 DEB7      		in r29,__SP_H__
 409 0026 A297      		sbiw r28,34
 410 0028 0FB6      		in __tmp_reg__,__SREG__
 411 002a F894      		cli
 412 002c DEBF      		out __SP_H__,r29
 413 002e 0FBE      		out __SREG__,__tmp_reg__
 414 0030 CDBF      		out __SP_L__,r28
 415               	/* prologue: function */
 416               	/* frame size = 34 */
 417               	/* stack size = 51 */
 418               	.L__stack_usage = 51
 419 0032 282E      		mov r2,r24
 420 0034 862E      		mov r8,r22
 421 0036 942E      		mov r9,r20
 422 0038 722E      		mov r7,r18
 423 003a 5701      		movw r10,r14
 424 003c 6801      		movw r12,r16
 425               	.LSM50:
 426 003e 4423      		tst r20
 427 0040 01F0      		breq .L30
 428               	.LVL37:
 429               	.LSM51:
 430 0042 17FF      		sbrs r17,7
 431 0044 00C0      		rjmp .L30
 432               	.LSM52:
 433 0046 6627      		clr r22
 434 0048 7727      		clr r23
 435 004a CB01      		movw r24,r22
 436 004c 6E19      		sub r22,r14
 437 004e 7F09      		sbc r23,r15
 438 0050 800B      		sbc r24,r16
 439 0052 910B      		sbc r25,r17
 440               	.LVL38:
 441 0054 00C0      		rjmp .L31
 442               	.LVL39:
 443               	.L30:
 444               	.LSM53:
 445 0056 C601      		movw r24,r12
 446 0058 B501      		movw r22,r10
 447               	.LVL40:
 448               	.L31:
 449               	.LSM54:
 450 005a 18A2      		std Y+32,__zero_reg__
 451               	.LVL41:
 452               	.LBB32:
 453               	.LSM55:
 454 005c 3324      		clr r3
 455 005e 4424      		clr r4
 456 0060 5524      		clr r5
 457               	.LVL42:
 458 0062 A201      		movw r20,r4
 459 0064 9101      		movw r18,r2
 460 0066 0E94 0000 		call __udivmodsi4
 461               	.LVL43:
 462 006a 6F70      		andi r22,lo8(15)
 463 006c 7070      		andi r23,hi8(15)
 464 006e 6050      		subi r22,lo8(-(HexChars))
 465 0070 7040      		sbci r23,hi8(-(HexChars))
 466 0072 FB01      		movw r30,r22
 467               	/* #APP */
 468               	 ;  225 "avrlib/rprintf.c" 1
 469 0074 6491      		lpm r22, Z
 470               		
 471               	 ;  0 "" 2
 472               	.LVL44:
 473               	/* #NOAPP */
 474               	.LBE32:
 475 0076 6F8F      		std Y+31,r22
 476 0078 B901      		movw r22,r18
 477               	.LVL45:
 478 007a CA01      		movw r24,r20
 479               	.LVL46:
 480 007c 8E01      		movw r16,r28
 481 007e 025E      		subi r16,lo8(-(30))
 482 0080 1F4F      		sbci r17,hi8(-(30))
 483               	.LSM56:
 484 0082 382D      		mov r19,r8
 485 0084 3150      		subi r19,lo8(-(-1))
 486 0086 21E0      		ldi r18,lo8(1)
 487 0088 9920      		tst r9
 488 008a 01F4      		brne .L32
 489 008c 20E0      		ldi r18,lo8(0)
 490               	.L32:
 491 008e 321B      		sub r19,r18
 492               	.LSM57:
 493 0090 A801      		movw r20,r16
 494 0092 431B      		sub r20,r19
 495 0094 5109      		sbc r21,__zero_reg__
 496 0096 5AA3      		std Y+34,r21
 497 0098 49A3      		std Y+33,r20
 498               	.LSM58:
 499 009a 00C0      		rjmp .L33
 500               	.LVL47:
 501               	.L36:
 502               	.LSM59:
 503 009c 6115      		cp r22,__zero_reg__
 504 009e 7105      		cpc r23,__zero_reg__
 505 00a0 8105      		cpc r24,__zero_reg__
 506 00a2 9105      		cpc r25,__zero_reg__
 507 00a4 01F0      		breq .L34
 508               	.LVL48:
 509               	.LBB33:
 510               	.LSM60:
 511 00a6 A201      		movw r20,r4
 512 00a8 9101      		movw r18,r2
 513 00aa 0E94 0000 		call __udivmodsi4
 514               	.LVL49:
 515 00ae 6F70      		andi r22,lo8(15)
 516 00b0 7070      		andi r23,hi8(15)
 517 00b2 6050      		subi r22,lo8(-(HexChars))
 518 00b4 7040      		sbci r23,hi8(-(HexChars))
 519 00b6 FB01      		movw r30,r22
 520               	/* #APP */
 521               	 ;  232 "avrlib/rprintf.c" 1
 522 00b8 6491      		lpm r22, Z
 523               		
 524               	 ;  0 "" 2
 525               	.LVL50:
 526               	/* #NOAPP */
 527               	.LBE33:
 528 00ba F801      		movw r30,r16
 529 00bc 6083      		st Z,r22
 530 00be B901      		movw r22,r18
 531               	.LVL51:
 532 00c0 CA01      		movw r24,r20
 533               	.LVL52:
 534 00c2 00C0      		rjmp .L35
 535               	.LVL53:
 536               	.L34:
 537               	.LSM61:
 538 00c4 F801      		movw r30,r16
 539 00c6 7082      		st Z,r7
 540               	.L35:
 541               	.LSM62:
 542 00c8 0150      		subi r16,lo8(-(-1))
 543 00ca 1040      		sbci r17,hi8(-(-1))
 544               	.LVL54:
 545               	.L33:
 546               	.LSM63:
 547 00cc 7801      		movw r14,r16
 548 00ce 0894      		sec
 549 00d0 E11C      		adc r14,__zero_reg__
 550 00d2 F11C      		adc r15,__zero_reg__
 551               	.LVL55:
 552               	.LSM64:
 553 00d4 29A1      		ldd r18,Y+33
 554 00d6 3AA1      		ldd r19,Y+34
 555 00d8 0217      		cp r16,r18
 556 00da 1307      		cpc r17,r19
 557 00dc 01F4      		brne .L36
 558               	.LSM65:
 559 00de 9920      		tst r9
 560 00e0 01F0      		breq .L42
 561               	.LSM66:
 562 00e2 D7FE      		sbrs r13,7
 563 00e4 00C0      		rjmp .L38
 564               	.LSM67:
 565 00e6 7801      		movw r14,r16
 566               	.LVL56:
 567 00e8 8DE2      		ldi r24,lo8(45)
 568 00ea 00C0      		rjmp .L43
 569               	.LVL57:
 570               	.L38:
 571               	.LSM68:
 572 00ec A114      		cp r10,__zero_reg__
 573 00ee B104      		cpc r11,__zero_reg__
 574 00f0 C104      		cpc r12,__zero_reg__
 575 00f2 D104      		cpc r13,__zero_reg__
 576 00f4 01F0      		breq .L39
 577               	.LSM69:
 578 00f6 7801      		movw r14,r16
 579               	.LVL58:
 580 00f8 8BE2      		ldi r24,lo8(43)
 581 00fa 00C0      		rjmp .L43
 582               	.LVL59:
 583               	.L39:
 584               	.LSM70:
 585 00fc 7801      		movw r14,r16
 586               	.LVL60:
 587 00fe 80E2      		ldi r24,lo8(32)
 588               	.L43:
 589 0100 F701      		movw r30,r14
 590 0102 8083      		st Z,r24
 591 0104 00C0      		rjmp .L42
 592               	.LVL61:
 593               	.L41:
 594               	.LSM71:
 595 0106 F701      		movw r30,r14
 596 0108 8191      		ld r24,Z+
 597 010a 7F01      		movw r14,r30
 598               	.LVL62:
 599 010c 0E94 0000 		call rprintfChar
 600               	.LVL63:
 601 0110 8A94      		dec r8
 602               	.LVL64:
 603               	.L42:
 604               	.LSM72:
 605 0112 8820      		tst r8
 606 0114 01F4      		brne .L41
 607               	/* epilogue start */
 608               	.LSM73:
 609 0116 A296      		adiw r28,34
 610 0118 0FB6      		in __tmp_reg__,__SREG__
 611 011a F894      		cli
 612 011c DEBF      		out __SP_H__,r29
 613 011e 0FBE      		out __SREG__,__tmp_reg__
 614 0120 CDBF      		out __SP_L__,r28
 615 0122 CF91      		pop r28
 616 0124 DF91      		pop r29
 617 0126 1F91      		pop r17
 618 0128 0F91      		pop r16
 619 012a FF90      		pop r15
 620 012c EF90      		pop r14
 621               	.LVL65:
 622 012e DF90      		pop r13
 623 0130 CF90      		pop r12
 624 0132 BF90      		pop r11
 625 0134 AF90      		pop r10
 626               	.LVL66:
 627 0136 9F90      		pop r9
 628               	.LVL67:
 629 0138 8F90      		pop r8
 630 013a 7F90      		pop r7
 631               	.LVL68:
 632 013c 5F90      		pop r5
 633 013e 4F90      		pop r4
 634 0140 3F90      		pop r3
 635 0142 2F90      		pop r2
 636               	.LVL69:
 637 0144 0895      		ret
 638               	.LFE10:
 640               		.section	.text.Isdigit,"ax",@progbits
 641               	.global	Isdigit
 643               	Isdigit:
 644               	.LFB11:
 645               	.LSM74:
 646               	.LVL70:
 647               	/* prologue: function */
 648               	/* frame size = 0 */
 649               	/* stack size = 0 */
 650               	.L__stack_usage = 0
 651               	.LSM75:
 652 0000 8053      		subi r24,lo8(-(-48))
 653               	.LVL71:
 654 0002 8A30      		cpi r24,lo8(10)
 655 0004 00F4      		brsh .L46
 656               	.LSM76:
 657 0006 8FEF      		ldi r24,lo8(-1)
 658               	.LVL72:
 659 0008 0895      		ret
 660               	.LVL73:
 661               	.L46:
 662               	.LSM77:
 663 000a 80E0      		ldi r24,lo8(0)
 664               	.LVL74:
 665               	.LSM78:
 666 000c 0895      		ret
 667               	.LFE11:
 669               		.section	.text.atoiRamRom,"ax",@progbits
 670               	.global	atoiRamRom
 672               	atoiRamRom:
 673               	.LFB12:
 674               	.LSM79:
 675               	.LVL75:
 676               	/* prologue: function */
 677               	/* frame size = 0 */
 678               	/* stack size = 0 */
 679               	.L__stack_usage = 0
 680 0000 A82F      		mov r26,r24
 681               	.LVL76:
 682               	.LSM80:
 683 0002 E62F      		mov r30,r22
 684 0004 F72F      		mov r31,r23
 685 0006 20E0      		ldi r18,lo8(0)
 686 0008 30E0      		ldi r19,hi8(0)
 687               	.LSM81:
 688 000a 00C0      		rjmp .L48
 689               	.LVL77:
 690               	.L53:
 691               	.LBB34:
 692               	.LSM82:
 693               	/* #APP */
 694               	 ;  398 "avrlib/rprintf.c" 1
 695 000c 4491      		lpm r20, Z
 696               		
 697               	 ;  0 "" 2
 698               	.LVL78:
 699               	/* #NOAPP */
 700 000e 00C0      		rjmp .L56
 701               	.LVL79:
 702               	.L57:
 703               	.LBE34:
 704               	.LSM83:
 705 0010 4081      		ld r20,Z
 706               	.L56:
 707 0012 50E0      		ldi r21,lo8(0)
 708 0014 4053      		subi r20,lo8(-(-48))
 709 0016 5040      		sbci r21,hi8(-(-48))
 710 0018 9C01      		movw r18,r24
 711 001a 240F      		add r18,r20
 712 001c 351F      		adc r19,r21
 713               	.LVL80:
 714 001e 3196      		adiw r30,1
 715               	.LVL81:
 716               	.L48:
 717               	.LSM84:
 718 0020 AA23      		tst r26
 719 0022 01F0      		breq .L50
 720               	.LVL82:
 721               	.LBB35:
 722               	/* #APP */
 723               	 ;  395 "avrlib/rprintf.c" 1
 724 0024 8491      		lpm r24, Z
 725               		
 726               	 ;  0 "" 2
 727               	.LVL83:
 728               	/* #NOAPP */
 729 0026 00C0      		rjmp .L51
 730               	.LVL84:
 731               	.L50:
 732               	.LBE35:
 733               	.LSM85:
 734 0028 8081      		ld r24,Z
 735               	.L51:
 736               	.LVL85:
 737               	.LBB36:
 738               	.LBB37:
 739               	.LSM86:
 740 002a 8053      		subi r24,lo8(-(-48))
 741               	.LVL86:
 742 002c 8A30      		cpi r24,lo8(10)
 743 002e 00F4      		brsh .L52
 744               	.LBE37:
 745               	.LBE36:
 746               	.LSM87:
 747 0030 C901      		movw r24,r18
 748               	.LVL87:
 749 0032 6AE0      		ldi r22,lo8(10)
 750 0034 70E0      		ldi r23,hi8(10)
 751 0036 0E94 0000 		call __mulhi3
 752               	.LVL88:
 753               	.LSM88:
 754 003a AA23      		tst r26
 755 003c 01F4      		brne .L53
 756 003e 00C0      		rjmp .L57
 757               	.LVL89:
 758               	.L52:
 759               	.LSM89:
 760 0040 C901      		movw r24,r18
 761               	.LVL90:
 762               	/* epilogue start */
 763 0042 0895      		ret
 764               	.LFE12:
 766               		.data
 767               	.LC0:
 768 0000 286E 696C 		.string	"(nil)"
 768      2900 
 769               		.section	.text.rprintf2RamRom,"ax",@progbits
 770               	.global	rprintf2RamRom
 772               	rprintf2RamRom:
 773               	.LFB13:
 774               	.LSM90:
 775               	.LVL91:
 776 0000 2F92      		push r2
 777 0002 3F92      		push r3
 778 0004 4F92      		push r4
 779 0006 5F92      		push r5
 780 0008 6F92      		push r6
 781 000a 7F92      		push r7
 782 000c 8F92      		push r8
 783 000e 9F92      		push r9
 784 0010 AF92      		push r10
 785 0012 BF92      		push r11
 786 0014 CF92      		push r12
 787 0016 DF92      		push r13
 788 0018 EF92      		push r14
 789 001a FF92      		push r15
 790 001c 0F93      		push r16
 791 001e 1F93      		push r17
 792 0020 DF93      		push r29
 793 0022 CF93      		push r28
 794 0024 00D0      		rcall .
 795 0026 CDB7      		in r28,__SP_L__
 796 0028 DEB7      		in r29,__SP_H__
 797               	/* prologue: function */
 798               	/* frame size = 2 */
 799               	/* stack size = 20 */
 800               	.L__stack_usage = 20
 801 002a 7F88      		ldd r7,Y+23
 802               	.LVL92:
 803               	.LSM91:
 804 002c 6AE1      		ldi r22,lo8(26)
 805 002e E62E      		mov r14,r22
 806 0030 F12C      		mov r15,__zero_reg__
 807 0032 EC0E      		add r14,r28
 808 0034 FD1E      		adc r15,r29
 809               	.LVL93:
 810               	.LSM92:
 811 0036 988D      		ldd r25,Y+24
 812 0038 898D      		ldd r24,Y+25
 813 003a 092F      		mov r16,r25
 814 003c 182F      		mov r17,r24
 815               	.LSM93:
 816 003e 50E3      		ldi r21,lo8(48)
 817 0040 652E      		mov r6,r21
 818 0042 6701      		movw r12,r14
 819               	.LSM94:
 820 0044 00C0      		rjmp .L59
 821               	.LVL94:
 822               	.L60:
 823               	.LSM95:
 824 0046 D801      		movw r26,r16
 825 0048 8C91      		ld r24,X
 826               	.L199:
 827 004a 8532      		cpi r24,lo8(37)
 828 004c 01F0      		breq .+2
 829 004e 00C0      		rjmp .L212
 830               	.L64:
 831               	.LSM96:
 832 0050 0F5F      		subi r16,lo8(-(1))
 833 0052 1F4F      		sbci r17,hi8(-(1))
 834               	.LVL95:
 835               	.LSM97:
 836 0054 7720      		tst r7
 837 0056 01F0      		breq .L68
 838               	.LVL96:
 839               	.LBB38:
 840               	.LSM98:
 841 0058 F801      		movw r30,r16
 842               	/* #APP */
 843               	 ;  441 "avrlib/rprintf.c" 1
 844 005a 8491      		lpm r24, Z
 845               		
 846               	 ;  0 "" 2
 847               	.LVL97:
 848               	/* #NOAPP */
 849 005c 00C0      		rjmp .L201
 850               	.LVL98:
 851               	.L68:
 852               	.LBE38:
 853               	.LSM99:
 854 005e D801      		movw r26,r16
 855 0060 8C91      		ld r24,X
 856               	.L201:
 857 0062 8D32      		cpi r24,lo8(45)
 858 0064 01F4      		brne .L165
 859               	.LVL99:
 860               	.LSM100:
 861 0066 0F5F      		subi r16,lo8(-(1))
 862 0068 1F4F      		sbci r17,hi8(-(1))
 863               	.LVL100:
 864               	.LSM101:
 865 006a 41E0      		ldi r20,lo8(1)
 866 006c 242E      		mov r2,r20
 867 006e 312C      		mov r3,__zero_reg__
 868 0070 00C0      		rjmp .L72
 869               	.LVL101:
 870               	.L165:
 871               	.LSM102:
 872 0072 2224      		clr r2
 873 0074 3324      		clr r3
 874               	.LVL102:
 875               	.L72:
 876               	.LSM103:
 877 0076 7720      		tst r7
 878 0078 01F0      		breq .L73
 879               	.LVL103:
 880               	.LBB39:
 881               	.LSM104:
 882 007a F801      		movw r30,r16
 883               	/* #APP */
 884               	 ;  446 "avrlib/rprintf.c" 1
 885 007c 8491      		lpm r24, Z
 886               		
 887               	 ;  0 "" 2
 888               	.LVL104:
 889               	/* #NOAPP */
 890               	.LBE39:
 891 007e 8033      		cpi r24,lo8(48)
 892 0080 01F4      		brne .L188
 893 0082 00C0      		rjmp .L74
 894               	.LVL105:
 895               	.L73:
 896               	.LSM105:
 897 0084 D801      		movw r26,r16
 898 0086 8C91      		ld r24,X
 899 0088 8033      		cpi r24,lo8(48)
 900 008a 01F4      		brne .L189
 901 008c 00C0      		rjmp .L74
 902               	.LVL106:
 903               	.L188:
 904               	.LSM106:
 905 008e 8E32      		cpi r24,lo8(46)
 906 0090 01F0      		breq .L74
 907 0092 30E2      		ldi r19,lo8(32)
 908 0094 432E      		mov r4,r19
 909 0096 00C0      		rjmp .L77
 910               	.LVL107:
 911               	.L189:
 912 0098 8E32      		cpi r24,lo8(46)
 913 009a 01F4      		brne .L166
 914               	.L74:
 915               	.LVL108:
 916               	.LSM107:
 917 009c 0F5F      		subi r16,lo8(-(1))
 918 009e 1F4F      		sbci r17,hi8(-(1))
 919               	.LVL109:
 920               	.LSM108:
 921 00a0 7720      		tst r7
 922 00a2 01F0      		breq .L167
 923               	.LSM109:
 924 00a4 20E3      		ldi r18,lo8(48)
 925 00a6 422E      		mov r4,r18
 926               	.LVL110:
 927               	.L77:
 928               	.LBB40:
 929               	.LSM110:
 930 00a8 F801      		movw r30,r16
 931               	/* #APP */
 932               	 ;  453 "avrlib/rprintf.c" 1
 933 00aa 8491      		lpm r24, Z
 934               		
 935               	 ;  0 "" 2
 936               	.LVL111:
 937               	/* #NOAPP */
 938               	.LBE40:
 939 00ac 8A32      		cpi r24,lo8(42)
 940 00ae 01F4      		brne .L190
 941 00b0 00C0      		rjmp .L178
 942               	.LVL112:
 943               	.L166:
 944               	.LSM111:
 945 00b2 90E2      		ldi r25,lo8(32)
 946 00b4 492E      		mov r4,r25
 947 00b6 00C0      		rjmp .L78
 948               	.LVL113:
 949               	.L167:
 950               	.LSM112:
 951 00b8 80E3      		ldi r24,lo8(48)
 952 00ba 482E      		mov r4,r24
 953               	.LVL114:
 954               	.L78:
 955               	.LSM113:
 956 00bc D801      		movw r26,r16
 957 00be 8C91      		ld r24,X
 958 00c0 8A32      		cpi r24,lo8(42)
 959 00c2 01F4      		brne .L84
 960               	.L178:
 961               	.LVL115:
 962               	.LSM114:
 963 00c4 F601      		movw r30,r12
 964 00c6 0190      		ld __tmp_reg__,Z+
 965 00c8 F081      		ld r31,Z
 966 00ca E02D      		mov r30,__tmp_reg__
 967 00cc FA83      		std Y+2,r31
 968 00ce E983      		std Y+1,r30
 969               	.LVL116:
 970               	.LSM115:
 971 00d0 0F5F      		subi r16,lo8(-(1))
 972 00d2 1F4F      		sbci r17,hi8(-(1))
 973               	.LVL117:
 974               	.LSM116:
 975 00d4 22E0      		ldi r18,lo8(2)
 976 00d6 30E0      		ldi r19,hi8(2)
 977 00d8 C20E      		add r12,r18
 978 00da D31E      		adc r13,r19
 979               	.LVL118:
 980 00dc 00C0      		rjmp .L83
 981               	.LVL119:
 982               	.L190:
 983               	.LSM117:
 984 00de 7720      		tst r7
 985 00e0 01F4      		brne .L85
 986               	.LVL120:
 987               	.L84:
 988               	.LSM118:
 989 00e2 D801      		movw r26,r16
 990 00e4 8C91      		ld r24,X
 991               	.L85:
 992               	.LVL121:
 993               	.LBB41:
 994               	.LBB42:
 995               	.LSM119:
 996 00e6 8053      		subi r24,lo8(-(-48))
 997               	.LVL122:
 998 00e8 8A30      		cpi r24,lo8(10)
 999 00ea 00F4      		brsh .L168
 1000               	.LBE42:
 1001               	.LBE41:
 1002               	.LSM120:
 1003 00ec 872D      		mov r24,r7
 1004               	.LVL123:
 1005 00ee B801      		movw r22,r16
 1006 00f0 0E94 0000 		call atoiRamRom
 1007 00f4 9A83      		std Y+2,r25
 1008 00f6 8983      		std Y+1,r24
 1009               	.LVL124:
 1010 00f8 F801      		movw r30,r16
 1011               	.LVL125:
 1012               	.L88:
 1013               	.LSM121:
 1014 00fa 7720      		tst r7
 1015 00fc 01F0      		breq .L86
 1016               	.LVL126:
 1017               	.LBB44:
 1018               	/* #APP */
 1019               	 ;  461 "avrlib/rprintf.c" 1
 1020 00fe 8491      		lpm r24, Z
 1021               		
 1022               	 ;  0 "" 2
 1023               	.LVL127:
 1024               	/* #NOAPP */
 1025 0100 00C0      		rjmp .L87
 1026               	.LVL128:
 1027               	.L86:
 1028               	.LBE44:
 1029               	.LSM122:
 1030 0102 8081      		ld r24,Z
 1031               	.L87:
 1032               	.LVL129:
 1033               	.LBB45:
 1034               	.LBB46:
 1035               	.LSM123:
 1036 0104 8053      		subi r24,lo8(-(-48))
 1037               	.LVL130:
 1038 0106 8A30      		cpi r24,lo8(10)
 1039 0108 00F4      		brsh .L197
 1040               	.LBE46:
 1041               	.LBE45:
 1042               	.LSM124:
 1043 010a 3196      		adiw r30,1
 1044               	.LVL131:
 1045 010c 00C0      		rjmp .L88
 1046               	.LVL132:
 1047               	.L168:
 1048               	.LBB47:
 1049               	.LBB43:
 1050               	.LSM125:
 1051 010e 1A82      		std Y+2,__zero_reg__
 1052 0110 1982      		std Y+1,__zero_reg__
 1053 0112 00C0      		rjmp .L83
 1054               	.LVL133:
 1055               	.L197:
 1056 0114 8F01      		movw r16,r30
 1057               	.LVL134:
 1058               	.L83:
 1059               	.LBE43:
 1060               	.LBE47:
 1061               	.LSM126:
 1062 0116 7720      		tst r7
 1063 0118 01F0      		breq .L89
 1064               	.LVL135:
 1065               	.LBB48:
 1066               	.LSM127:
 1067 011a F801      		movw r30,r16
 1068               	/* #APP */
 1069               	 ;  464 "avrlib/rprintf.c" 1
 1070 011c 8491      		lpm r24, Z
 1071               		
 1072               	 ;  0 "" 2
 1073               	.LVL136:
 1074               	/* #NOAPP */
 1075 011e 00C0      		rjmp .L203
 1076               	.LVL137:
 1077               	.L89:
 1078               	.LBE48:
 1079               	.LSM128:
 1080 0120 D801      		movw r26,r16
 1081 0122 8C91      		ld r24,X
 1082               	.L203:
 1083 0124 8E32      		cpi r24,lo8(46)
 1084 0126 01F4      		brne .L170
 1085               	.LSM129:
 1086 0128 0F5F      		subi r16,lo8(-(1))
 1087 012a 1F4F      		sbci r17,hi8(-(1))
 1088               	.LVL138:
 1089               	.LSM130:
 1090 012c 7720      		tst r7
 1091 012e 01F0      		breq .L94
 1092               	.LVL139:
 1093               	.LBB49:
 1094               	.LSM131:
 1095 0130 F801      		movw r30,r16
 1096               	/* #APP */
 1097               	 ;  467 "avrlib/rprintf.c" 1
 1098 0132 8491      		lpm r24, Z
 1099               		
 1100               	 ;  0 "" 2
 1101               	.LVL140:
 1102               	/* #NOAPP */
 1103               	.LBE49:
 1104 0134 8A32      		cpi r24,lo8(42)
 1105 0136 01F4      		brne .L100
 1106 0138 00C0      		rjmp .L180
 1107               	.LVL141:
 1108               	.L94:
 1109               	.LSM132:
 1110 013a D801      		movw r26,r16
 1111 013c 8C91      		ld r24,X
 1112 013e 8A32      		cpi r24,lo8(42)
 1113 0140 01F4      		brne .L192
 1114               	.L180:
 1115               	.LVL142:
 1116               	.LSM133:
 1117 0142 F601      		movw r30,r12
 1118 0144 8080      		ld r8,Z
 1119 0146 9180      		ldd r9,Z+1
 1120               	.LVL143:
 1121               	.LSM134:
 1122 0148 0F5F      		subi r16,lo8(-(1))
 1123 014a 1F4F      		sbci r17,hi8(-(1))
 1124               	.LVL144:
 1125               	.LSM135:
 1126 014c 22E0      		ldi r18,lo8(2)
 1127 014e 30E0      		ldi r19,hi8(2)
 1128 0150 C20E      		add r12,r18
 1129 0152 D31E      		adc r13,r19
 1130               	.LVL145:
 1131 0154 00C0      		rjmp .L93
 1132               	.LVL146:
 1133               	.L192:
 1134               	.LSM136:
 1135 0156 D801      		movw r26,r16
 1136 0158 8C91      		ld r24,X
 1137               	.L100:
 1138               	.LVL147:
 1139               	.LBB50:
 1140               	.LBB51:
 1141               	.LSM137:
 1142 015a 8053      		subi r24,lo8(-(-48))
 1143               	.LVL148:
 1144 015c 8A30      		cpi r24,lo8(10)
 1145 015e 00F4      		brsh .L170
 1146               	.LBE51:
 1147               	.LBE50:
 1148               	.LSM138:
 1149 0160 872D      		mov r24,r7
 1150               	.LVL149:
 1151 0162 B801      		movw r22,r16
 1152 0164 0E94 0000 		call atoiRamRom
 1153 0168 4C01      		movw r8,r24
 1154               	.LVL150:
 1155 016a F801      		movw r30,r16
 1156               	.LVL151:
 1157               	.L103:
 1158               	.LSM139:
 1159 016c 7720      		tst r7
 1160 016e 01F0      		breq .L101
 1161               	.LVL152:
 1162               	.LBB53:
 1163               	/* #APP */
 1164               	 ;  475 "avrlib/rprintf.c" 1
 1165 0170 8491      		lpm r24, Z
 1166               		
 1167               	 ;  0 "" 2
 1168               	.LVL153:
 1169               	/* #NOAPP */
 1170 0172 00C0      		rjmp .L102
 1171               	.LVL154:
 1172               	.L101:
 1173               	.LBE53:
 1174               	.LSM140:
 1175 0174 8081      		ld r24,Z
 1176               	.L102:
 1177               	.LVL155:
 1178               	.LBB54:
 1179               	.LBB55:
 1180               	.LSM141:
 1181 0176 8053      		subi r24,lo8(-(-48))
 1182               	.LVL156:
 1183 0178 8A30      		cpi r24,lo8(10)
 1184 017a 00F4      		brsh .L198
 1185               	.LBE55:
 1186               	.LBE54:
 1187               	.LSM142:
 1188 017c 3196      		adiw r30,1
 1189               	.LVL157:
 1190 017e 00C0      		rjmp .L103
 1191               	.LVL158:
 1192               	.L170:
 1193               	.LBB56:
 1194               	.LBB52:
 1195               	.LSM143:
 1196 0180 BEEF      		ldi r27,lo8(32766)
 1197 0182 8B2E      		mov r8,r27
 1198 0184 BFE7      		ldi r27,hi8(32766)
 1199 0186 9B2E      		mov r9,r27
 1200 0188 00C0      		rjmp .L93
 1201               	.LVL159:
 1202               	.L198:
 1203 018a 8F01      		movw r16,r30
 1204               	.LVL160:
 1205               	.L93:
 1206               	.LBE52:
 1207               	.LBE56:
 1208               	.LSM144:
 1209 018c 7720      		tst r7
 1210 018e 01F0      		breq .L104
 1211               	.LVL161:
 1212               	.LBB57:
 1213               	.LSM145:
 1214 0190 F801      		movw r30,r16
 1215               	/* #APP */
 1216               	 ;  479 "avrlib/rprintf.c" 1
 1217 0192 8491      		lpm r24, Z
 1218               		
 1219               	 ;  0 "" 2
 1220               	.LVL162:
 1221               	/* #NOAPP */
 1222 0194 00C0      		rjmp .L205
 1223               	.LVL163:
 1224               	.L104:
 1225               	.LBE57:
 1226               	.LSM146:
 1227 0196 D801      		movw r26,r16
 1228 0198 8C91      		ld r24,X
 1229               	.L205:
 1230 019a 8332      		cpi r24,lo8(35)
 1231 019c 01F4      		brne .L171
 1232               	.LVL164:
 1233               	.LSM147:
 1234 019e 0F5F      		subi r16,lo8(-(1))
 1235 01a0 1F4F      		sbci r17,hi8(-(1))
 1236               	.LVL165:
 1237               	.LSM148:
 1238 01a2 A1E0      		ldi r26,lo8(1)
 1239 01a4 B0E0      		ldi r27,hi8(1)
 1240 01a6 00C0      		rjmp .L108
 1241               	.LVL166:
 1242               	.L171:
 1243               	.LSM149:
 1244 01a8 A0E0      		ldi r26,lo8(0)
 1245 01aa B0E0      		ldi r27,hi8(0)
 1246               	.LVL167:
 1247               	.L108:
 1248               	.LSM150:
 1249 01ac 7720      		tst r7
 1250 01ae 01F0      		breq .L109
 1251               	.LVL168:
 1252               	.LBB58:
 1253               	.LSM151:
 1254 01b0 F801      		movw r30,r16
 1255               	/* #APP */
 1256               	 ;  484 "avrlib/rprintf.c" 1
 1257 01b2 8491      		lpm r24, Z
 1258               		
 1259               	 ;  0 "" 2
 1260               	.LVL169:
 1261               	/* #NOAPP */
 1262 01b4 00C0      		rjmp .L207
 1263               	.LVL170:
 1264               	.L109:
 1265               	.LBE58:
 1266               	.LSM152:
 1267 01b6 F801      		movw r30,r16
 1268 01b8 8081      		ld r24,Z
 1269               	.L207:
 1270 01ba 8C36      		cpi r24,lo8(108)
 1271 01bc 01F4      		brne .L172
 1272               	.LVL171:
 1273               	.LSM153:
 1274 01be 0F5F      		subi r16,lo8(-(1))
 1275 01c0 1F4F      		sbci r17,hi8(-(1))
 1276               	.LVL172:
 1277               	.LSM154:
 1278 01c2 81E0      		ldi r24,lo8(1)
 1279 01c4 90E0      		ldi r25,hi8(1)
 1280 01c6 00C0      		rjmp .L113
 1281               	.LVL173:
 1282               	.L172:
 1283               	.LSM155:
 1284 01c8 80E0      		ldi r24,lo8(0)
 1285 01ca 90E0      		ldi r25,hi8(0)
 1286               	.LVL174:
 1287               	.L113:
 1288               	.LSM156:
 1289 01cc 7720      		tst r7
 1290 01ce 01F0      		breq .L114
 1291               	.LVL175:
 1292               	.LBB59:
 1293               	.LSM157:
 1294 01d0 F801      		movw r30,r16
 1295               	/* #APP */
 1296               	 ;  490 "avrlib/rprintf.c" 1
 1297 01d2 2491      		lpm r18, Z
 1298               		
 1299               	 ;  0 "" 2
 1300               	.LVL176:
 1301               	/* #NOAPP */
 1302 01d4 00C0      		rjmp .L208
 1303               	.LVL177:
 1304               	.L114:
 1305               	.LBE59:
 1306               	.LSM158:
 1307 01d6 F801      		movw r30,r16
 1308 01d8 2081      		ld r18,Z
 1309               	.L208:
 1310 01da 30E0      		ldi r19,lo8(0)
 1311               	.LVL178:
 1312               	.LSM159:
 1313 01dc 2F36      		cpi r18,111
 1314 01de 3105      		cpc r19,__zero_reg__
 1315 01e0 01F4      		brne .+2
 1316 01e2 00C0      		rjmp .L119
 1317               	.LSM160:
 1318 01e4 2037      		cpi r18,112
 1319 01e6 3105      		cpc r19,__zero_reg__
 1320 01e8 04F4      		brge .L121
 1321 01ea 2336      		cpi r18,99
 1322 01ec 3105      		cpc r19,__zero_reg__
 1323 01ee 01F4      		brne .+2
 1324 01f0 00C0      		rjmp .L117
 1325 01f2 2436      		cpi r18,100
 1326 01f4 3105      		cpc r19,__zero_reg__
 1327 01f6 01F0      		breq .L118
 1328 01f8 2532      		cpi r18,37
 1329 01fa 3105      		cpc r19,__zero_reg__
 1330 01fc 01F0      		breq .+2
 1331 01fe 00C0      		rjmp .L67
 1332 0200 00C0      		rjmp .L213
 1333               	.L121:
 1334 0202 2537      		cpi r18,117
 1335 0204 3105      		cpc r19,__zero_reg__
 1336 0206 01F4      		brne .+2
 1337 0208 00C0      		rjmp .L119
 1338 020a 2837      		cpi r18,120
 1339 020c 3105      		cpc r19,__zero_reg__
 1340 020e 01F4      		brne .+2
 1341 0210 00C0      		rjmp .L119
 1342 0212 2337      		cpi r18,115
 1343 0214 3105      		cpc r19,__zero_reg__
 1344 0216 01F0      		breq .+2
 1345 0218 00C0      		rjmp .L67
 1346 021a 00C0      		rjmp .L214
 1347               	.L118:
 1348               	.LSM161:
 1349 021c 0097      		sbiw r24,0
 1350 021e 01F0      		breq .L122
 1351               	.LVL179:
 1352               	.LSM162:
 1353 0220 D601      		movw r26,r12
 1354               	.LVL180:
 1355 0222 6D91      		ld r22,X+
 1356 0224 7D91      		ld r23,X+
 1357 0226 8D91      		ld r24,X+
 1358 0228 9C91      		ld r25,X
 1359 022a 1397      		sbiw r26,3
 1360               	.LVL181:
 1361 022c E4E0      		ldi r30,lo8(4)
 1362 022e F0E0      		ldi r31,hi8(4)
 1363 0230 00C0      		rjmp .L209
 1364               	.LVL182:
 1365               	.L122:
 1366               	.LSM163:
 1367 0232 D601      		movw r26,r12
 1368               	.LVL183:
 1369 0234 6D91      		ld r22,X+
 1370 0236 7C91      		ld r23,X
 1371 0238 1197      		sbiw r26,1
 1372 023a 8827      		clr r24
 1373 023c 77FD      		sbrc r23,7
 1374 023e 8095      		com r24
 1375 0240 982F      		mov r25,r24
 1376               	.LVL184:
 1377 0242 E2E0      		ldi r30,lo8(2)
 1378 0244 F0E0      		ldi r31,hi8(2)
 1379               	.LVL185:
 1380               	.L209:
 1381 0246 CE0E      		add r12,r30
 1382 0248 DF1E      		adc r13,r31
 1383               	.LVL186:
 1384               	.LSM164:
 1385 024a 97FF      		sbrs r25,7
 1386 024c 00C0      		rjmp .L173
 1387               	.LVL187:
 1388               	.LSM165:
 1389 024e 9095      		com r25
 1390 0250 8095      		com r24
 1391 0252 7095      		com r23
 1392 0254 6195      		neg r22
 1393 0256 7F4F      		sbci r23,lo8(-1)
 1394 0258 8F4F      		sbci r24,lo8(-1)
 1395 025a 9F4F      		sbci r25,lo8(-1)
 1396               	.LVL188:
 1397               	.LSM166:
 1398 025c A1E0      		ldi r26,lo8(1)
 1399 025e 8A2E      		mov r8,r26
 1400 0260 912C      		mov r9,__zero_reg__
 1401               	.LVL189:
 1402 0262 00C0      		rjmp .L124
 1403               	.LVL190:
 1404               	.L173:
 1405               	.LSM167:
 1406 0264 8824      		clr r8
 1407 0266 9924      		clr r9
 1408               	.LVL191:
 1409               	.L124:
 1410               	.LSM168:
 1411 0268 F0E0      		ldi r31,lo8(buf)
 1412 026a AF2E      		mov r10,r31
 1413 026c F0E0      		ldi r31,hi8(buf)
 1414 026e BF2E      		mov r11,r31
 1415               	.LVL192:
 1416               	.L125:
 1417               	.LSM169:
 1418 0270 2AE0      		ldi r18,lo8(10)
 1419 0272 30E0      		ldi r19,hi8(10)
 1420 0274 40E0      		ldi r20,hlo8(10)
 1421 0276 50E0      		ldi r21,hhi8(10)
 1422 0278 0E94 0000 		call __divmodsi4
 1423               	.LVL193:
 1424 027c 605D      		subi r22,lo8(-(48))
 1425 027e F501      		movw r30,r10
 1426 0280 6193      		st Z+,r22
 1427 0282 5F01      		movw r10,r30
 1428               	.LVL194:
 1429               	.LSM170:
 1430 0284 B901      		movw r22,r18
 1431 0286 CA01      		movw r24,r20
 1432               	.LVL195:
 1433 0288 1616      		cp __zero_reg__,r22
 1434 028a 1706      		cpc __zero_reg__,r23
 1435 028c 1806      		cpc __zero_reg__,r24
 1436 028e 1906      		cpc __zero_reg__,r25
 1437 0290 04F0      		brlt .L125
 1438 0292 7F01      		movw r14,r30
 1439               	.LSM171:
 1440 0294 8114      		cp r8,__zero_reg__
 1441 0296 9104      		cpc r9,__zero_reg__
 1442 0298 01F0      		breq .L126
 1443               	.LSM172:
 1444 029a DF01      		movw r26,r30
 1445 029c EDE2      		ldi r30,lo8(45)
 1446               	.LVL196:
 1447 029e ED93      		st X+,r30
 1448 02a0 7D01      		movw r14,r26
 1449               	.LVL197:
 1450               	.L126:
 1451               	.LSM173:
 1452 02a2 A980      		ldd r10,Y+1
 1453 02a4 BA80      		ldd r11,Y+2
 1454 02a6 20E0      		ldi r18,lo8(buf)
 1455 02a8 30E0      		ldi r19,hi8(buf)
 1456 02aa A20E      		add r10,r18
 1457 02ac B31E      		adc r11,r19
 1458 02ae AE18      		sub r10,r14
 1459 02b0 BF08      		sbc r11,r15
 1460               	.LVL198:
 1461               	.LSM174:
 1462 02b2 2114      		cp r2,__zero_reg__
 1463 02b4 3104      		cpc r3,__zero_reg__
 1464 02b6 01F4      		brne .L130
 1465 02b8 00C0      		rjmp .L193
 1466               	.LVL199:
 1467               	.L129:
 1468               	.LSM175:
 1469 02ba 842D      		mov r24,r4
 1470 02bc 0E94 0000 		call rprintfChar
 1471               	.L193:
 1472               	.LSM176:
 1473 02c0 0894      		sec
 1474 02c2 A108      		sbc r10,__zero_reg__
 1475 02c4 B108      		sbc r11,__zero_reg__
 1476               	.LVL200:
 1477               	.LSM177:
 1478 02c6 9501      		movw r18,r10
 1479 02c8 2F5F      		subi r18,lo8(-(1))
 1480 02ca 3F4F      		sbci r19,hi8(-(1))
 1481               	.LSM178:
 1482 02cc 1216      		cp __zero_reg__,r18
 1483 02ce 1306      		cpc __zero_reg__,r19
 1484 02d0 04F0      		brlt .L129
 1485 02d2 00C0      		rjmp .L130
 1486               	.LVL201:
 1487               	.L131:
 1488               	.LSM179:
 1489 02d4 D701      		movw r26,r14
 1490 02d6 8C91      		ld r24,X
 1491 02d8 0E94 0000 		call rprintfChar
 1492               	.L130:
 1493               	.LSM180:
 1494 02dc 0894      		sec
 1495 02de E108      		sbc r14,__zero_reg__
 1496 02e0 F108      		sbc r15,__zero_reg__
 1497               	.LSM181:
 1498 02e2 B0E0      		ldi r27,lo8(buf)
 1499 02e4 EB16      		cp r14,r27
 1500 02e6 B0E0      		ldi r27,hi8(buf)
 1501 02e8 FB06      		cpc r15,r27
 1502 02ea 00F4      		brsh .L131
 1503               	.LSM182:
 1504 02ec 2114      		cp r2,__zero_reg__
 1505 02ee 3104      		cpc r3,__zero_reg__
 1506 02f0 01F4      		brne .+2
 1507 02f2 00C0      		rjmp .L67
 1508 02f4 00C0      		rjmp .L132
 1509               	.LVL202:
 1510               	.L133:
 1511               	.LSM183:
 1512 02f6 80E2      		ldi r24,lo8(32)
 1513 02f8 0E94 0000 		call rprintfChar
 1514 02fc 0894      		sec
 1515 02fe A108      		sbc r10,__zero_reg__
 1516 0300 B108      		sbc r11,__zero_reg__
 1517               	.L132:
 1518               	.LSM184:
 1519 0302 1A14      		cp __zero_reg__,r10
 1520 0304 1B04      		cpc __zero_reg__,r11
 1521 0306 04F0      		brlt .L133
 1522 0308 00C0      		rjmp .L67
 1523               	.LVL203:
 1524               	.L119:
 1525               	.LSM185:
 1526 030a 0097      		sbiw r24,0
 1527 030c 01F0      		breq .L134
 1528               	.LVL204:
 1529               	.LSM186:
 1530 030e F601      		movw r30,r12
 1531 0310 6081      		ld r22,Z
 1532 0312 7181      		ldd r23,Z+1
 1533 0314 8281      		ldd r24,Z+2
 1534 0316 9381      		ldd r25,Z+3
 1535               	.LVL205:
 1536 0318 44E0      		ldi r20,lo8(4)
 1537 031a 50E0      		ldi r21,hi8(4)
 1538 031c 00C0      		rjmp .L210
 1539               	.LVL206:
 1540               	.L134:
 1541               	.LSM187:
 1542 031e F601      		movw r30,r12
 1543 0320 6081      		ld r22,Z
 1544 0322 7181      		ldd r23,Z+1
 1545 0324 80E0      		ldi r24,lo8(0)
 1546 0326 90E0      		ldi r25,hi8(0)
 1547               	.LVL207:
 1548 0328 42E0      		ldi r20,lo8(2)
 1549 032a 50E0      		ldi r21,hi8(2)
 1550               	.LVL208:
 1551               	.L210:
 1552 032c C40E      		add r12,r20
 1553 032e D51E      		adc r13,r21
 1554               	.LVL209:
 1555               	.LSM188:
 1556 0330 2537      		cpi r18,117
 1557 0332 3105      		cpc r19,__zero_reg__
 1558 0334 01F4      		brne .L136
 1559 0336 E0E0      		ldi r30,lo8(buf)
 1560 0338 AE2E      		mov r10,r30
 1561 033a E0E0      		ldi r30,hi8(buf)
 1562 033c BE2E      		mov r11,r30
 1563               	.LVL210:
 1564               	.L137:
 1565               	.LSM189:
 1566 033e 2AE0      		ldi r18,lo8(10)
 1567 0340 30E0      		ldi r19,hi8(10)
 1568 0342 40E0      		ldi r20,hlo8(10)
 1569 0344 50E0      		ldi r21,hhi8(10)
 1570 0346 0E94 0000 		call __udivmodsi4
 1571               	.LVL211:
 1572 034a 605D      		subi r22,lo8(-(48))
 1573 034c D501      		movw r26,r10
 1574 034e 6D93      		st X+,r22
 1575 0350 5D01      		movw r10,r26
 1576 0352 7D01      		movw r14,r26
 1577               	.LVL212:
 1578               	.LSM190:
 1579 0354 B901      		movw r22,r18
 1580 0356 CA01      		movw r24,r20
 1581               	.LVL213:
 1582 0358 6115      		cp r22,__zero_reg__
 1583 035a 7105      		cpc r23,__zero_reg__
 1584 035c 8105      		cpc r24,__zero_reg__
 1585 035e 9105      		cpc r25,__zero_reg__
 1586 0360 01F4      		brne .L137
 1587 0362 00C0      		rjmp .L138
 1588               	.LVL214:
 1589               	.L136:
 1590               	.LSM191:
 1591 0364 2F36      		cpi r18,111
 1592 0366 3105      		cpc r19,__zero_reg__
 1593 0368 01F4      		brne .L139
 1594 036a 20E0      		ldi r18,lo8(buf)
 1595 036c 30E0      		ldi r19,hi8(buf)
 1596               	.LVL215:
 1597               	.L140:
 1598               	.LSM192:
 1599 036e 462F      		mov r20,r22
 1600 0370 4770      		andi r20,lo8(7)
 1601 0372 405D      		subi r20,lo8(-(48))
 1602 0374 F901      		movw r30,r18
 1603 0376 4193      		st Z+,r20
 1604 0378 9F01      		movw r18,r30
 1605               	.LVL216:
 1606               	.LSM193:
 1607 037a 53E0      		ldi r21,3
 1608 037c 9695      	1:	lsr r25
 1609 037e 8795      		ror r24
 1610 0380 7795      		ror r23
 1611 0382 6795      		ror r22
 1612 0384 5A95      		dec r21
 1613 0386 01F4      		brne 1b
 1614               	.LVL217:
 1615 0388 6115      		cp r22,__zero_reg__
 1616 038a 7105      		cpc r23,__zero_reg__
 1617 038c 8105      		cpc r24,__zero_reg__
 1618 038e 9105      		cpc r25,__zero_reg__
 1619 0390 01F4      		brne .L140
 1620 0392 7F01      		movw r14,r30
 1621               	.LSM194:
 1622 0394 1097      		sbiw r26,0
 1623 0396 01F0      		breq .L138
 1624               	.LSM195:
 1625 0398 6192      		st Z+,r6
 1626               	.LVL218:
 1627 039a 7F01      		movw r14,r30
 1628               	.LVL219:
 1629 039c 00C0      		rjmp .L138
 1630               	.LVL220:
 1631               	.L139:
 1632               	.LSM196:
 1633 039e 2837      		cpi r18,120
 1634 03a0 3105      		cpc r19,__zero_reg__
 1635 03a2 01F4      		brne .L174
 1636 03a4 20E0      		ldi r18,lo8(buf+1)
 1637 03a6 30E0      		ldi r19,hi8(buf+1)
 1638               	.LVL221:
 1639 03a8 F901      		movw r30,r18
 1640 03aa 3197      		sbiw r30,1
 1641               	.LVL222:
 1642               	.L143:
 1643               	.LSM197:
 1644 03ac AB01      		movw r20,r22
 1645 03ae 4F70      		andi r20,lo8(15)
 1646 03b0 5070      		andi r21,hi8(15)
 1647               	.LVL223:
 1648               	.LSM198:
 1649 03b2 4A30      		cpi r20,10
 1650 03b4 5105      		cpc r21,__zero_reg__
 1651 03b6 04F4      		brge .L141
 1652               	.LSM199:
 1653 03b8 405D      		subi r20,lo8(-(48))
 1654               	.LVL224:
 1655 03ba 00C0      		rjmp .L211
 1656               	.LVL225:
 1657               	.L141:
 1658               	.LSM200:
 1659 03bc 495A      		subi r20,lo8(-(87))
 1660               	.LVL226:
 1661               	.L211:
 1662 03be 4083      		st Z,r20
 1663 03c0 7901      		movw r14,r18
 1664               	.LVL227:
 1665               	.LSM201:
 1666 03c2 44E0      		ldi r20,4
 1667 03c4 9695      	1:	lsr r25
 1668 03c6 8795      		ror r24
 1669 03c8 7795      		ror r23
 1670 03ca 6795      		ror r22
 1671 03cc 4A95      		dec r20
 1672 03ce 01F4      		brne 1b
 1673               	.LVL228:
 1674 03d0 2F5F      		subi r18,lo8(-(1))
 1675 03d2 3F4F      		sbci r19,hi8(-(1))
 1676               	.LVL229:
 1677 03d4 3196      		adiw r30,1
 1678 03d6 6115      		cp r22,__zero_reg__
 1679 03d8 7105      		cpc r23,__zero_reg__
 1680 03da 8105      		cpc r24,__zero_reg__
 1681 03dc 9105      		cpc r25,__zero_reg__
 1682 03de 01F4      		brne .L143
 1683               	.LSM202:
 1684 03e0 1097      		sbiw r26,0
 1685 03e2 01F0      		breq .L138
 1686               	.LSM203:
 1687 03e4 F701      		movw r30,r14
 1688 03e6 28E7      		ldi r18,lo8(120)
 1689 03e8 2193      		st Z+,r18
 1690               	.LVL230:
 1691               	.LSM204:
 1692 03ea D701      		movw r26,r14
 1693               	.LVL231:
 1694 03ec 1196      		adiw r26,1
 1695 03ee 6C92      		st X,r6
 1696 03f0 1197      		sbiw r26,1
 1697 03f2 7F01      		movw r14,r30
 1698 03f4 0894      		sec
 1699 03f6 E11C      		adc r14,__zero_reg__
 1700 03f8 F11C      		adc r15,__zero_reg__
 1701               	.LVL232:
 1702 03fa 00C0      		rjmp .L138
 1703               	.LVL233:
 1704               	.L174:
 1705               	.LSM205:
 1706 03fc 20E0      		ldi r18,lo8(buf)
 1707 03fe E22E      		mov r14,r18
 1708 0400 20E0      		ldi r18,hi8(buf)
 1709 0402 F22E      		mov r15,r18
 1710               	.LVL234:
 1711               	.L138:
 1712               	.LSM206:
 1713 0404 A980      		ldd r10,Y+1
 1714 0406 BA80      		ldd r11,Y+2
 1715 0408 E0E0      		ldi r30,lo8(buf)
 1716 040a F0E0      		ldi r31,hi8(buf)
 1717 040c AE0E      		add r10,r30
 1718 040e BF1E      		adc r11,r31
 1719 0410 AE18      		sub r10,r14
 1720 0412 BF08      		sbc r11,r15
 1721               	.LVL235:
 1722               	.LSM207:
 1723 0414 2114      		cp r2,__zero_reg__
 1724 0416 3104      		cpc r3,__zero_reg__
 1725 0418 01F4      		brne .L147
 1726 041a 00C0      		rjmp .L194
 1727               	.LVL236:
 1728               	.L146:
 1729               	.LSM208:
 1730 041c 842D      		mov r24,r4
 1731 041e 0E94 0000 		call rprintfChar
 1732               	.L194:
 1733               	.LSM209:
 1734 0422 0894      		sec
 1735 0424 A108      		sbc r10,__zero_reg__
 1736 0426 B108      		sbc r11,__zero_reg__
 1737               	.LVL237:
 1738               	.LSM210:
 1739 0428 9501      		movw r18,r10
 1740 042a 2F5F      		subi r18,lo8(-(1))
 1741 042c 3F4F      		sbci r19,hi8(-(1))
 1742               	.LSM211:
 1743 042e 1216      		cp __zero_reg__,r18
 1744 0430 1306      		cpc __zero_reg__,r19
 1745 0432 04F0      		brlt .L146
 1746 0434 00C0      		rjmp .L147
 1747               	.LVL238:
 1748               	.L148:
 1749               	.LSM212:
 1750 0436 D701      		movw r26,r14
 1751 0438 8C91      		ld r24,X
 1752 043a 0E94 0000 		call rprintfChar
 1753               	.L147:
 1754               	.LSM213:
 1755 043e 0894      		sec
 1756 0440 E108      		sbc r14,__zero_reg__
 1757 0442 F108      		sbc r15,__zero_reg__
 1758               	.LSM214:
 1759 0444 B0E0      		ldi r27,lo8(buf)
 1760 0446 EB16      		cp r14,r27
 1761 0448 B0E0      		ldi r27,hi8(buf)
 1762 044a FB06      		cpc r15,r27
 1763 044c 00F4      		brsh .L148
 1764               	.LSM215:
 1765 044e 2114      		cp r2,__zero_reg__
 1766 0450 3104      		cpc r3,__zero_reg__
 1767 0452 01F4      		brne .+2
 1768 0454 00C0      		rjmp .L67
 1769 0456 00C0      		rjmp .L149
 1770               	.LVL239:
 1771               	.L150:
 1772               	.LSM216:
 1773 0458 80E2      		ldi r24,lo8(32)
 1774 045a 0E94 0000 		call rprintfChar
 1775 045e 0894      		sec
 1776 0460 A108      		sbc r10,__zero_reg__
 1777 0462 B108      		sbc r11,__zero_reg__
 1778               	.L149:
 1779               	.LSM217:
 1780 0464 1A14      		cp __zero_reg__,r10
 1781 0466 1B04      		cpc __zero_reg__,r11
 1782 0468 04F0      		brlt .L150
 1783 046a 00C0      		rjmp .L67
 1784               	.LVL240:
 1785               	.L117:
 1786               	.LSM218:
 1787 046c 92E0      		ldi r25,lo8(2)
 1788 046e E92E      		mov r14,r25
 1789 0470 F12C      		mov r15,__zero_reg__
 1790 0472 EC0C      		add r14,r12
 1791 0474 FD1C      		adc r15,r13
 1792               	.LVL241:
 1793               	.LSM219:
 1794 0476 F601      		movw r30,r12
 1795 0478 8081      		ld r24,Z
 1796               	.LVL242:
 1797 047a 0E94 0000 		call rprintfChar
 1798               	.LVL243:
 1799               	.LSM220:
 1800 047e 6701      		movw r12,r14
 1801               	.LSM221:
 1802 0480 00C0      		rjmp .L67
 1803               	.LVL244:
 1804               	.L214:
 1805               	.LSM222:
 1806 0482 F601      		movw r30,r12
 1807 0484 22E0      		ldi r18,lo8(2)
 1808 0486 30E0      		ldi r19,hi8(2)
 1809               	.LVL245:
 1810 0488 C20E      		add r12,r18
 1811 048a D31E      		adc r13,r19
 1812               	.LVL246:
 1813 048c E080      		ld r14,Z
 1814 048e F180      		ldd r15,Z+1
 1815               	.LVL247:
 1816               	.LSM223:
 1817 0490 E114      		cp r14,__zero_reg__
 1818 0492 F104      		cpc r15,__zero_reg__
 1819 0494 01F4      		brne .L151
 1820               	.LSM224:
 1821 0496 80E0      		ldi r24,lo8(.LC0)
 1822 0498 E82E      		mov r14,r24
 1823 049a 80E0      		ldi r24,hi8(.LC0)
 1824 049c F82E      		mov r15,r24
 1825               	.LVL248:
 1826               	.L151:
 1827               	.LSM225:
 1828 049e F701      		movw r30,r14
 1829 04a0 0190      		ld __tmp_reg__,Z+
 1830 04a2 0020      		tst __tmp_reg__
 1831 04a4 01F4      		brne .-6
 1832 04a6 3197      		sbiw r30,1
 1833 04a8 EE19      		sub r30,r14
 1834 04aa FF09      		sbc r31,r15
 1835 04ac A980      		ldd r10,Y+1
 1836 04ae BA80      		ldd r11,Y+2
 1837 04b0 AE1A      		sub r10,r30
 1838 04b2 BF0A      		sbc r11,r31
 1839               	.LVL249:
 1840               	.LSM226:
 1841 04b4 2114      		cp r2,__zero_reg__
 1842 04b6 3104      		cpc r3,__zero_reg__
 1843 04b8 01F4      		brne .L152
 1844 04ba 00C0      		rjmp .L195
 1845               	.LVL250:
 1846               	.L154:
 1847               	.LSM227:
 1848 04bc 842D      		mov r24,r4
 1849 04be 0E94 0000 		call rprintfChar
 1850               	.L195:
 1851               	.LSM228:
 1852 04c2 0894      		sec
 1853 04c4 A108      		sbc r10,__zero_reg__
 1854 04c6 B108      		sbc r11,__zero_reg__
 1855               	.LVL251:
 1856               	.LSM229:
 1857 04c8 9501      		movw r18,r10
 1858 04ca 2F5F      		subi r18,lo8(-(1))
 1859 04cc 3F4F      		sbci r19,hi8(-(1))
 1860               	.LSM230:
 1861 04ce 1216      		cp __zero_reg__,r18
 1862 04d0 1306      		cpc __zero_reg__,r19
 1863 04d2 04F0      		brlt .L154
 1864               	.L152:
 1865               	.LVL252:
 1866               	.LSM231:
 1867 04d4 2701      		movw r4,r14
 1868               	.LSM232:
 1869 04d6 EE24      		clr r14
 1870 04d8 FF24      		clr r15
 1871               	.LVL253:
 1872 04da 00C0      		rjmp .L155
 1873               	.LVL254:
 1874               	.L157:
 1875               	.LSM233:
 1876 04dc 0E94 0000 		call rprintfChar
 1877               	.LSM234:
 1878 04e0 0894      		sec
 1879 04e2 E11C      		adc r14,__zero_reg__
 1880 04e4 F11C      		adc r15,__zero_reg__
 1881               	.LVL255:
 1882               	.L155:
 1883 04e6 D201      		movw r26,r4
 1884 04e8 8D91      		ld r24,X+
 1885 04ea 2D01      		movw r4,r26
 1886 04ec 8823      		tst r24
 1887 04ee 01F0      		breq .L156
 1888               	.LSM235:
 1889 04f0 E814      		cp r14,r8
 1890 04f2 F904      		cpc r15,r9
 1891 04f4 04F0      		brlt .L157
 1892               	.L156:
 1893               	.LSM236:
 1894 04f6 2114      		cp r2,__zero_reg__
 1895 04f8 3104      		cpc r3,__zero_reg__
 1896 04fa 01F0      		breq .L67
 1897 04fc 00C0      		rjmp .L158
 1898               	.LVL256:
 1899               	.L159:
 1900               	.LSM237:
 1901 04fe 80E2      		ldi r24,lo8(32)
 1902 0500 0E94 0000 		call rprintfChar
 1903 0504 0894      		sec
 1904 0506 A108      		sbc r10,__zero_reg__
 1905 0508 B108      		sbc r11,__zero_reg__
 1906               	.L158:
 1907               	.LSM238:
 1908 050a 1A14      		cp __zero_reg__,r10
 1909 050c 1B04      		cpc __zero_reg__,r11
 1910 050e 04F0      		brlt .L159
 1911 0510 00C0      		rjmp .L67
 1912               	.LVL257:
 1913               	.L213:
 1914               	.LSM239:
 1915 0512 85E2      		ldi r24,lo8(37)
 1916               	.LVL258:
 1917               	.L212:
 1918 0514 0E94 0000 		call rprintfChar
 1919               	.LVL259:
 1920               	.L67:
 1921               	.LSM240:
 1922 0518 0F5F      		subi r16,lo8(-(1))
 1923 051a 1F4F      		sbci r17,hi8(-(1))
 1924               	.LVL260:
 1925               	.L59:
 1926               	.LSM241:
 1927 051c 7720      		tst r7
 1928 051e 01F0      		breq .L160
 1929               	.LVL261:
 1930               	.LBB60:
 1931 0520 F801      		movw r30,r16
 1932               	/* #APP */
 1933               	 ;  431 "avrlib/rprintf.c" 1
 1934 0522 8491      		lpm r24, Z
 1935               		
 1936               	 ;  0 "" 2
 1937               	.LVL262:
 1938               	/* #NOAPP */
 1939               	.LBE60:
 1940 0524 8823      		tst r24
 1941 0526 01F0      		breq .+2
 1942 0528 00C0      		rjmp .L199
 1943 052a 00C0      		rjmp .L196
 1944               	.LVL263:
 1945               	.L160:
 1946               	.LSM242:
 1947 052c D801      		movw r26,r16
 1948 052e 8C91      		ld r24,X
 1949 0530 8823      		tst r24
 1950 0532 01F0      		breq .+2
 1951 0534 00C0      		rjmp .L60
 1952               	.L196:
 1953               	.LSM243:
 1954 0536 80E0      		ldi r24,lo8(0)
 1955 0538 90E0      		ldi r25,hi8(0)
 1956               	/* epilogue start */
 1957 053a 0F90      		pop __tmp_reg__
 1958 053c 0F90      		pop __tmp_reg__
 1959 053e CF91      		pop r28
 1960 0540 DF91      		pop r29
 1961 0542 1F91      		pop r17
 1962 0544 0F91      		pop r16
 1963               	.LVL264:
 1964 0546 FF90      		pop r15
 1965 0548 EF90      		pop r14
 1966 054a DF90      		pop r13
 1967 054c CF90      		pop r12
 1968               	.LVL265:
 1969 054e BF90      		pop r11
 1970 0550 AF90      		pop r10
 1971 0552 9F90      		pop r9
 1972 0554 8F90      		pop r8
 1973 0556 7F90      		pop r7
 1974 0558 6F90      		pop r6
 1975 055a 5F90      		pop r5
 1976 055c 4F90      		pop r4
 1977 055e 3F90      		pop r3
 1978 0560 2F90      		pop r2
 1979 0562 0895      		ret
 1980               	.LFE13:
 1982               		.lcomm buf,128
 1983               		.section	.progmem.data,"a",@progbits
 1986               	HexChars:
 1987 0000 3031 3233 		.string	"0123456789ABCDEF"
 1987      3435 3637 
 1987      3839 4142 
 1987      4344 4546 
 1987      00
 1988               		.lcomm rputchar,2
 2117               	.Letext0:
DEFINED SYMBOLS
                            *ABS*:00000000 rprintf.c
C:\Users\Alex\AppData\Local\Temp\ccDBqz7Z.s:2      *ABS*:0000003f __SREG__
C:\Users\Alex\AppData\Local\Temp\ccDBqz7Z.s:3      *ABS*:0000003e __SP_H__
C:\Users\Alex\AppData\Local\Temp\ccDBqz7Z.s:4      *ABS*:0000003d __SP_L__
C:\Users\Alex\AppData\Local\Temp\ccDBqz7Z.s:5      *ABS*:00000034 __CCP__
C:\Users\Alex\AppData\Local\Temp\ccDBqz7Z.s:6      *ABS*:00000000 __tmp_reg__
C:\Users\Alex\AppData\Local\Temp\ccDBqz7Z.s:7      *ABS*:00000001 __zero_reg__
C:\Users\Alex\AppData\Local\Temp\ccDBqz7Z.s:19     .text.rprintfInit:00000000 rprintfInit
C:\Users\Alex\AppData\Local\Temp\ccDBqz7Z.s:1982   .bss:00000080 rputchar
C:\Users\Alex\AppData\Local\Temp\ccDBqz7Z.s:38     .text.rprintfChar:00000000 rprintfChar
C:\Users\Alex\AppData\Local\Temp\ccDBqz7Z.s:73     .text.rprintfStr:00000000 rprintfStr
C:\Users\Alex\AppData\Local\Temp\ccDBqz7Z.s:108    .text.rprintfStrLen:00000000 rprintfStrLen
C:\Users\Alex\AppData\Local\Temp\ccDBqz7Z.s:195    .text.rprintfProgStr:00000000 rprintfProgStr
C:\Users\Alex\AppData\Local\Temp\ccDBqz7Z.s:246    .text.rprintfCRLF:00000000 rprintfCRLF
C:\Users\Alex\AppData\Local\Temp\ccDBqz7Z.s:264    .text.rprintfu04:00000000 rprintfu04
C:\Users\Alex\AppData\Local\Temp\ccDBqz7Z.s:1986   .progmem.data:00000000 HexChars
C:\Users\Alex\AppData\Local\Temp\ccDBqz7Z.s:298    .text.rprintfu08:00000000 rprintfu08
C:\Users\Alex\AppData\Local\Temp\ccDBqz7Z.s:326    .text.rprintfu16:00000000 rprintfu16
C:\Users\Alex\AppData\Local\Temp\ccDBqz7Z.s:352    .text.rprintfu32:00000000 rprintfu32
C:\Users\Alex\AppData\Local\Temp\ccDBqz7Z.s:386    .text.rprintfNum:00000000 rprintfNum
C:\Users\Alex\AppData\Local\Temp\ccDBqz7Z.s:643    .text.Isdigit:00000000 Isdigit
C:\Users\Alex\AppData\Local\Temp\ccDBqz7Z.s:672    .text.atoiRamRom:00000000 atoiRamRom
C:\Users\Alex\AppData\Local\Temp\ccDBqz7Z.s:772    .text.rprintf2RamRom:00000000 rprintf2RamRom
                             .bss:00000000 buf

UNDEFINED SYMBOLS
__udivmodsi4
__mulhi3
__divmodsi4
__do_copy_data
__do_clear_bss
